
;CodeVisionAVR C Compiler V2.05.0 Professional
;(C) Copyright 1998-2010 Pavel Haiduc, HP InfoTech s.r.l.
;http://www.hpinfotech.com

;Chip type                : ATmega32
;Program type             : Application
;Clock frequency          : 8.000000 MHz
;Memory model             : Small
;Optimize for             : Size
;(s)printf features       : float, width, precision
;(s)scanf features        : long, width
;External RAM size        : 0
;Data Stack size          : 512 byte(s)
;Heap size                : 0 byte(s)
;Promote 'char' to 'int'  : No
;'char' is unsigned       : Yes
;8 bit enums              : Yes
;global 'const' stored in FLASH: No
;Enhanced core instructions    : On
;Smart register allocation     : On
;Automatic register allocation : On

	#pragma AVRPART ADMIN PART_NAME ATmega32
	#pragma AVRPART MEMORY PROG_FLASH 32768
	#pragma AVRPART MEMORY EEPROM 1024
	#pragma AVRPART MEMORY INT_SRAM SIZE 2143
	#pragma AVRPART MEMORY INT_SRAM START_ADDR 0x60

	#define CALL_SUPPORTED 1

	.LISTMAC
	.EQU UDRE=0x5
	.EQU RXC=0x7
	.EQU USR=0xB
	.EQU UDR=0xC
	.EQU SPSR=0xE
	.EQU SPDR=0xF
	.EQU EERE=0x0
	.EQU EEWE=0x1
	.EQU EEMWE=0x2
	.EQU EECR=0x1C
	.EQU EEDR=0x1D
	.EQU EEARL=0x1E
	.EQU EEARH=0x1F
	.EQU WDTCR=0x21
	.EQU MCUCR=0x35
	.EQU GICR=0x3B
	.EQU SPL=0x3D
	.EQU SPH=0x3E
	.EQU SREG=0x3F

	.DEF R0X0=R0
	.DEF R0X1=R1
	.DEF R0X2=R2
	.DEF R0X3=R3
	.DEF R0X4=R4
	.DEF R0X5=R5
	.DEF R0X6=R6
	.DEF R0X7=R7
	.DEF R0X8=R8
	.DEF R0X9=R9
	.DEF R0XA=R10
	.DEF R0XB=R11
	.DEF R0XC=R12
	.DEF R0XD=R13
	.DEF R0XE=R14
	.DEF R0XF=R15
	.DEF R0X10=R16
	.DEF R0X11=R17
	.DEF R0X12=R18
	.DEF R0X13=R19
	.DEF R0X14=R20
	.DEF R0X15=R21
	.DEF R0X16=R22
	.DEF R0X17=R23
	.DEF R0X18=R24
	.DEF R0X19=R25
	.DEF R0X1A=R26
	.DEF R0X1B=R27
	.DEF R0X1C=R28
	.DEF R0X1D=R29
	.DEF R0X1E=R30
	.DEF R0X1F=R31

	.EQU __SRAM_START=0x0060
	.EQU __SRAM_END=0x085F
	.EQU __DSTACK_SIZE=0x0200
	.EQU __HEAP_SIZE=0x0000
	.EQU __CLEAR_SRAM_SIZE=__SRAM_END-__SRAM_START+1

	.MACRO __CPD1N
	CPI  R30,LOW(@0)
	LDI  R26,HIGH(@0)
	CPC  R31,R26
	LDI  R26,BYTE3(@0)
	CPC  R22,R26
	LDI  R26,BYTE4(@0)
	CPC  R23,R26
	.ENDM

	.MACRO __CPD2N
	CPI  R26,LOW(@0)
	LDI  R30,HIGH(@0)
	CPC  R27,R30
	LDI  R30,BYTE3(@0)
	CPC  R24,R30
	LDI  R30,BYTE4(@0)
	CPC  R25,R30
	.ENDM

	.MACRO __CPWRR
	CP   R@0,R@2
	CPC  R@1,R@3
	.ENDM

	.MACRO __CPWRN
	CPI  R@0,LOW(@2)
	LDI  R30,HIGH(@2)
	CPC  R@1,R30
	.ENDM

	.MACRO __ADDB1MN
	SUBI R30,LOW(-@0-(@1))
	.ENDM

	.MACRO __ADDB2MN
	SUBI R26,LOW(-@0-(@1))
	.ENDM

	.MACRO __ADDW1MN
	SUBI R30,LOW(-@0-(@1))
	SBCI R31,HIGH(-@0-(@1))
	.ENDM

	.MACRO __ADDW2MN
	SUBI R26,LOW(-@0-(@1))
	SBCI R27,HIGH(-@0-(@1))
	.ENDM

	.MACRO __ADDW1FN
	SUBI R30,LOW(-2*@0-(@1))
	SBCI R31,HIGH(-2*@0-(@1))
	.ENDM

	.MACRO __ADDD1FN
	SUBI R30,LOW(-2*@0-(@1))
	SBCI R31,HIGH(-2*@0-(@1))
	SBCI R22,BYTE3(-2*@0-(@1))
	.ENDM

	.MACRO __ADDD1N
	SUBI R30,LOW(-@0)
	SBCI R31,HIGH(-@0)
	SBCI R22,BYTE3(-@0)
	SBCI R23,BYTE4(-@0)
	.ENDM

	.MACRO __ADDD2N
	SUBI R26,LOW(-@0)
	SBCI R27,HIGH(-@0)
	SBCI R24,BYTE3(-@0)
	SBCI R25,BYTE4(-@0)
	.ENDM

	.MACRO __SUBD1N
	SUBI R30,LOW(@0)
	SBCI R31,HIGH(@0)
	SBCI R22,BYTE3(@0)
	SBCI R23,BYTE4(@0)
	.ENDM

	.MACRO __SUBD2N
	SUBI R26,LOW(@0)
	SBCI R27,HIGH(@0)
	SBCI R24,BYTE3(@0)
	SBCI R25,BYTE4(@0)
	.ENDM

	.MACRO __ANDBMNN
	LDS  R30,@0+(@1)
	ANDI R30,LOW(@2)
	STS  @0+(@1),R30
	.ENDM

	.MACRO __ANDWMNN
	LDS  R30,@0+(@1)
	ANDI R30,LOW(@2)
	STS  @0+(@1),R30
	LDS  R30,@0+(@1)+1
	ANDI R30,HIGH(@2)
	STS  @0+(@1)+1,R30
	.ENDM

	.MACRO __ANDD1N
	ANDI R30,LOW(@0)
	ANDI R31,HIGH(@0)
	ANDI R22,BYTE3(@0)
	ANDI R23,BYTE4(@0)
	.ENDM

	.MACRO __ANDD2N
	ANDI R26,LOW(@0)
	ANDI R27,HIGH(@0)
	ANDI R24,BYTE3(@0)
	ANDI R25,BYTE4(@0)
	.ENDM

	.MACRO __ORBMNN
	LDS  R30,@0+(@1)
	ORI  R30,LOW(@2)
	STS  @0+(@1),R30
	.ENDM

	.MACRO __ORWMNN
	LDS  R30,@0+(@1)
	ORI  R30,LOW(@2)
	STS  @0+(@1),R30
	LDS  R30,@0+(@1)+1
	ORI  R30,HIGH(@2)
	STS  @0+(@1)+1,R30
	.ENDM

	.MACRO __ORD1N
	ORI  R30,LOW(@0)
	ORI  R31,HIGH(@0)
	ORI  R22,BYTE3(@0)
	ORI  R23,BYTE4(@0)
	.ENDM

	.MACRO __ORD2N
	ORI  R26,LOW(@0)
	ORI  R27,HIGH(@0)
	ORI  R24,BYTE3(@0)
	ORI  R25,BYTE4(@0)
	.ENDM

	.MACRO __DELAY_USB
	LDI  R24,LOW(@0)
__DELAY_USB_LOOP:
	DEC  R24
	BRNE __DELAY_USB_LOOP
	.ENDM

	.MACRO __DELAY_USW
	LDI  R24,LOW(@0)
	LDI  R25,HIGH(@0)
__DELAY_USW_LOOP:
	SBIW R24,1
	BRNE __DELAY_USW_LOOP
	.ENDM

	.MACRO __GETD1S
	LDD  R30,Y+@0
	LDD  R31,Y+@0+1
	LDD  R22,Y+@0+2
	LDD  R23,Y+@0+3
	.ENDM

	.MACRO __GETD2S
	LDD  R26,Y+@0
	LDD  R27,Y+@0+1
	LDD  R24,Y+@0+2
	LDD  R25,Y+@0+3
	.ENDM

	.MACRO __PUTD1S
	STD  Y+@0,R30
	STD  Y+@0+1,R31
	STD  Y+@0+2,R22
	STD  Y+@0+3,R23
	.ENDM

	.MACRO __PUTD2S
	STD  Y+@0,R26
	STD  Y+@0+1,R27
	STD  Y+@0+2,R24
	STD  Y+@0+3,R25
	.ENDM

	.MACRO __PUTDZ2
	STD  Z+@0,R26
	STD  Z+@0+1,R27
	STD  Z+@0+2,R24
	STD  Z+@0+3,R25
	.ENDM

	.MACRO __CLRD1S
	STD  Y+@0,R30
	STD  Y+@0+1,R30
	STD  Y+@0+2,R30
	STD  Y+@0+3,R30
	.ENDM

	.MACRO __POINTB1MN
	LDI  R30,LOW(@0+(@1))
	.ENDM

	.MACRO __POINTW1MN
	LDI  R30,LOW(@0+(@1))
	LDI  R31,HIGH(@0+(@1))
	.ENDM

	.MACRO __POINTD1M
	LDI  R30,LOW(@0)
	LDI  R31,HIGH(@0)
	LDI  R22,BYTE3(@0)
	LDI  R23,BYTE4(@0)
	.ENDM

	.MACRO __POINTW1FN
	LDI  R30,LOW(2*@0+(@1))
	LDI  R31,HIGH(2*@0+(@1))
	.ENDM

	.MACRO __POINTD1FN
	LDI  R30,LOW(2*@0+(@1))
	LDI  R31,HIGH(2*@0+(@1))
	LDI  R22,BYTE3(2*@0+(@1))
	LDI  R23,BYTE4(2*@0+(@1))
	.ENDM

	.MACRO __POINTB2MN
	LDI  R26,LOW(@0+(@1))
	.ENDM

	.MACRO __POINTW2MN
	LDI  R26,LOW(@0+(@1))
	LDI  R27,HIGH(@0+(@1))
	.ENDM

	.MACRO __POINTBRM
	LDI  R@0,LOW(@1)
	.ENDM

	.MACRO __POINTWRM
	LDI  R@0,LOW(@2)
	LDI  R@1,HIGH(@2)
	.ENDM

	.MACRO __POINTBRMN
	LDI  R@0,LOW(@1+(@2))
	.ENDM

	.MACRO __POINTWRMN
	LDI  R@0,LOW(@2+(@3))
	LDI  R@1,HIGH(@2+(@3))
	.ENDM

	.MACRO __POINTWRFN
	LDI  R@0,LOW(@2*2+(@3))
	LDI  R@1,HIGH(@2*2+(@3))
	.ENDM

	.MACRO __GETD1N
	LDI  R30,LOW(@0)
	LDI  R31,HIGH(@0)
	LDI  R22,BYTE3(@0)
	LDI  R23,BYTE4(@0)
	.ENDM

	.MACRO __GETD2N
	LDI  R26,LOW(@0)
	LDI  R27,HIGH(@0)
	LDI  R24,BYTE3(@0)
	LDI  R25,BYTE4(@0)
	.ENDM

	.MACRO __GETB1MN
	LDS  R30,@0+(@1)
	.ENDM

	.MACRO __GETB1HMN
	LDS  R31,@0+(@1)
	.ENDM

	.MACRO __GETW1MN
	LDS  R30,@0+(@1)
	LDS  R31,@0+(@1)+1
	.ENDM

	.MACRO __GETD1MN
	LDS  R30,@0+(@1)
	LDS  R31,@0+(@1)+1
	LDS  R22,@0+(@1)+2
	LDS  R23,@0+(@1)+3
	.ENDM

	.MACRO __GETBRMN
	LDS  R@0,@1+(@2)
	.ENDM

	.MACRO __GETWRMN
	LDS  R@0,@2+(@3)
	LDS  R@1,@2+(@3)+1
	.ENDM

	.MACRO __GETWRZ
	LDD  R@0,Z+@2
	LDD  R@1,Z+@2+1
	.ENDM

	.MACRO __GETD2Z
	LDD  R26,Z+@0
	LDD  R27,Z+@0+1
	LDD  R24,Z+@0+2
	LDD  R25,Z+@0+3
	.ENDM

	.MACRO __GETB2MN
	LDS  R26,@0+(@1)
	.ENDM

	.MACRO __GETW2MN
	LDS  R26,@0+(@1)
	LDS  R27,@0+(@1)+1
	.ENDM

	.MACRO __GETD2MN
	LDS  R26,@0+(@1)
	LDS  R27,@0+(@1)+1
	LDS  R24,@0+(@1)+2
	LDS  R25,@0+(@1)+3
	.ENDM

	.MACRO __PUTB1MN
	STS  @0+(@1),R30
	.ENDM

	.MACRO __PUTW1MN
	STS  @0+(@1),R30
	STS  @0+(@1)+1,R31
	.ENDM

	.MACRO __PUTD1MN
	STS  @0+(@1),R30
	STS  @0+(@1)+1,R31
	STS  @0+(@1)+2,R22
	STS  @0+(@1)+3,R23
	.ENDM

	.MACRO __PUTB1EN
	LDI  R26,LOW(@0+(@1))
	LDI  R27,HIGH(@0+(@1))
	CALL __EEPROMWRB
	.ENDM

	.MACRO __PUTW1EN
	LDI  R26,LOW(@0+(@1))
	LDI  R27,HIGH(@0+(@1))
	CALL __EEPROMWRW
	.ENDM

	.MACRO __PUTD1EN
	LDI  R26,LOW(@0+(@1))
	LDI  R27,HIGH(@0+(@1))
	CALL __EEPROMWRD
	.ENDM

	.MACRO __PUTBR0MN
	STS  @0+(@1),R0
	.ENDM

	.MACRO __PUTBMRN
	STS  @0+(@1),R@2
	.ENDM

	.MACRO __PUTWMRN
	STS  @0+(@1),R@2
	STS  @0+(@1)+1,R@3
	.ENDM

	.MACRO __PUTBZR
	STD  Z+@1,R@0
	.ENDM

	.MACRO __PUTWZR
	STD  Z+@2,R@0
	STD  Z+@2+1,R@1
	.ENDM

	.MACRO __GETW1R
	MOV  R30,R@0
	MOV  R31,R@1
	.ENDM

	.MACRO __GETW2R
	MOV  R26,R@0
	MOV  R27,R@1
	.ENDM

	.MACRO __GETWRN
	LDI  R@0,LOW(@2)
	LDI  R@1,HIGH(@2)
	.ENDM

	.MACRO __PUTW1R
	MOV  R@0,R30
	MOV  R@1,R31
	.ENDM

	.MACRO __PUTW2R
	MOV  R@0,R26
	MOV  R@1,R27
	.ENDM

	.MACRO __ADDWRN
	SUBI R@0,LOW(-@2)
	SBCI R@1,HIGH(-@2)
	.ENDM

	.MACRO __ADDWRR
	ADD  R@0,R@2
	ADC  R@1,R@3
	.ENDM

	.MACRO __SUBWRN
	SUBI R@0,LOW(@2)
	SBCI R@1,HIGH(@2)
	.ENDM

	.MACRO __SUBWRR
	SUB  R@0,R@2
	SBC  R@1,R@3
	.ENDM

	.MACRO __ANDWRN
	ANDI R@0,LOW(@2)
	ANDI R@1,HIGH(@2)
	.ENDM

	.MACRO __ANDWRR
	AND  R@0,R@2
	AND  R@1,R@3
	.ENDM

	.MACRO __ORWRN
	ORI  R@0,LOW(@2)
	ORI  R@1,HIGH(@2)
	.ENDM

	.MACRO __ORWRR
	OR   R@0,R@2
	OR   R@1,R@3
	.ENDM

	.MACRO __EORWRR
	EOR  R@0,R@2
	EOR  R@1,R@3
	.ENDM

	.MACRO __GETWRS
	LDD  R@0,Y+@2
	LDD  R@1,Y+@2+1
	.ENDM

	.MACRO __PUTBSR
	STD  Y+@1,R@0
	.ENDM

	.MACRO __PUTWSR
	STD  Y+@2,R@0
	STD  Y+@2+1,R@1
	.ENDM

	.MACRO __MOVEWRR
	MOV  R@0,R@2
	MOV  R@1,R@3
	.ENDM

	.MACRO __INWR
	IN   R@0,@2
	IN   R@1,@2+1
	.ENDM

	.MACRO __OUTWR
	OUT  @2+1,R@1
	OUT  @2,R@0
	.ENDM

	.MACRO __CALL1MN
	LDS  R30,@0+(@1)
	LDS  R31,@0+(@1)+1
	ICALL
	.ENDM

	.MACRO __CALL1FN
	LDI  R30,LOW(2*@0+(@1))
	LDI  R31,HIGH(2*@0+(@1))
	CALL __GETW1PF
	ICALL
	.ENDM

	.MACRO __CALL2EN
	LDI  R26,LOW(@0+(@1))
	LDI  R27,HIGH(@0+(@1))
	CALL __EEPROMRDW
	ICALL
	.ENDM

	.MACRO __GETW1STACK
	IN   R26,SPL
	IN   R27,SPH
	ADIW R26,@0+1
	LD   R30,X+
	LD   R31,X
	.ENDM

	.MACRO __GETD1STACK
	IN   R26,SPL
	IN   R27,SPH
	ADIW R26,@0+1
	LD   R30,X+
	LD   R31,X+
	LD   R22,X
	.ENDM

	.MACRO __NBST
	BST  R@0,@1
	IN   R30,SREG
	LDI  R31,0x40
	EOR  R30,R31
	OUT  SREG,R30
	.ENDM


	.MACRO __PUTB1SN
	LDD  R26,Y+@0
	LDD  R27,Y+@0+1
	SUBI R26,LOW(-@1)
	SBCI R27,HIGH(-@1)
	ST   X,R30
	.ENDM

	.MACRO __PUTW1SN
	LDD  R26,Y+@0
	LDD  R27,Y+@0+1
	SUBI R26,LOW(-@1)
	SBCI R27,HIGH(-@1)
	ST   X+,R30
	ST   X,R31
	.ENDM

	.MACRO __PUTD1SN
	LDD  R26,Y+@0
	LDD  R27,Y+@0+1
	SUBI R26,LOW(-@1)
	SBCI R27,HIGH(-@1)
	CALL __PUTDP1
	.ENDM

	.MACRO __PUTB1SNS
	LDD  R26,Y+@0
	LDD  R27,Y+@0+1
	ADIW R26,@1
	ST   X,R30
	.ENDM

	.MACRO __PUTW1SNS
	LDD  R26,Y+@0
	LDD  R27,Y+@0+1
	ADIW R26,@1
	ST   X+,R30
	ST   X,R31
	.ENDM

	.MACRO __PUTD1SNS
	LDD  R26,Y+@0
	LDD  R27,Y+@0+1
	ADIW R26,@1
	CALL __PUTDP1
	.ENDM

	.MACRO __PUTB1PMN
	LDS  R26,@0
	LDS  R27,@0+1
	SUBI R26,LOW(-@1)
	SBCI R27,HIGH(-@1)
	ST   X,R30
	.ENDM

	.MACRO __PUTW1PMN
	LDS  R26,@0
	LDS  R27,@0+1
	SUBI R26,LOW(-@1)
	SBCI R27,HIGH(-@1)
	ST   X+,R30
	ST   X,R31
	.ENDM

	.MACRO __PUTD1PMN
	LDS  R26,@0
	LDS  R27,@0+1
	SUBI R26,LOW(-@1)
	SBCI R27,HIGH(-@1)
	CALL __PUTDP1
	.ENDM

	.MACRO __PUTB1PMNS
	LDS  R26,@0
	LDS  R27,@0+1
	ADIW R26,@1
	ST   X,R30
	.ENDM

	.MACRO __PUTW1PMNS
	LDS  R26,@0
	LDS  R27,@0+1
	ADIW R26,@1
	ST   X+,R30
	ST   X,R31
	.ENDM

	.MACRO __PUTD1PMNS
	LDS  R26,@0
	LDS  R27,@0+1
	ADIW R26,@1
	CALL __PUTDP1
	.ENDM

	.MACRO __PUTB1RN
	MOVW R26,R@0
	SUBI R26,LOW(-@1)
	SBCI R27,HIGH(-@1)
	ST   X,R30
	.ENDM

	.MACRO __PUTW1RN
	MOVW R26,R@0
	SUBI R26,LOW(-@1)
	SBCI R27,HIGH(-@1)
	ST   X+,R30
	ST   X,R31
	.ENDM

	.MACRO __PUTD1RN
	MOVW R26,R@0
	SUBI R26,LOW(-@1)
	SBCI R27,HIGH(-@1)
	CALL __PUTDP1
	.ENDM

	.MACRO __PUTB1RNS
	MOVW R26,R@0
	ADIW R26,@1
	ST   X,R30
	.ENDM

	.MACRO __PUTW1RNS
	MOVW R26,R@0
	ADIW R26,@1
	ST   X+,R30
	ST   X,R31
	.ENDM

	.MACRO __PUTD1RNS
	MOVW R26,R@0
	ADIW R26,@1
	CALL __PUTDP1
	.ENDM

	.MACRO __PUTB1RON
	MOV  R26,R@0
	MOV  R27,R@1
	SUBI R26,LOW(-@2)
	SBCI R27,HIGH(-@2)
	ST   X,R30
	.ENDM

	.MACRO __PUTW1RON
	MOV  R26,R@0
	MOV  R27,R@1
	SUBI R26,LOW(-@2)
	SBCI R27,HIGH(-@2)
	ST   X+,R30
	ST   X,R31
	.ENDM

	.MACRO __PUTD1RON
	MOV  R26,R@0
	MOV  R27,R@1
	SUBI R26,LOW(-@2)
	SBCI R27,HIGH(-@2)
	CALL __PUTDP1
	.ENDM

	.MACRO __PUTB1RONS
	MOV  R26,R@0
	MOV  R27,R@1
	ADIW R26,@2
	ST   X,R30
	.ENDM

	.MACRO __PUTW1RONS
	MOV  R26,R@0
	MOV  R27,R@1
	ADIW R26,@2
	ST   X+,R30
	ST   X,R31
	.ENDM

	.MACRO __PUTD1RONS
	MOV  R26,R@0
	MOV  R27,R@1
	ADIW R26,@2
	CALL __PUTDP1
	.ENDM


	.MACRO __GETB1SX
	MOVW R30,R28
	SUBI R30,LOW(-@0)
	SBCI R31,HIGH(-@0)
	LD   R30,Z
	.ENDM

	.MACRO __GETB1HSX
	MOVW R30,R28
	SUBI R30,LOW(-@0)
	SBCI R31,HIGH(-@0)
	LD   R31,Z
	.ENDM

	.MACRO __GETW1SX
	MOVW R30,R28
	SUBI R30,LOW(-@0)
	SBCI R31,HIGH(-@0)
	LD   R0,Z+
	LD   R31,Z
	MOV  R30,R0
	.ENDM

	.MACRO __GETD1SX
	MOVW R30,R28
	SUBI R30,LOW(-@0)
	SBCI R31,HIGH(-@0)
	LD   R0,Z+
	LD   R1,Z+
	LD   R22,Z+
	LD   R23,Z
	MOVW R30,R0
	.ENDM

	.MACRO __GETB2SX
	MOVW R26,R28
	SUBI R26,LOW(-@0)
	SBCI R27,HIGH(-@0)
	LD   R26,X
	.ENDM

	.MACRO __GETW2SX
	MOVW R26,R28
	SUBI R26,LOW(-@0)
	SBCI R27,HIGH(-@0)
	LD   R0,X+
	LD   R27,X
	MOV  R26,R0
	.ENDM

	.MACRO __GETD2SX
	MOVW R26,R28
	SUBI R26,LOW(-@0)
	SBCI R27,HIGH(-@0)
	LD   R0,X+
	LD   R1,X+
	LD   R24,X+
	LD   R25,X
	MOVW R26,R0
	.ENDM

	.MACRO __GETBRSX
	MOVW R30,R28
	SUBI R30,LOW(-@1)
	SBCI R31,HIGH(-@1)
	LD   R@0,Z
	.ENDM

	.MACRO __GETWRSX
	MOVW R30,R28
	SUBI R30,LOW(-@2)
	SBCI R31,HIGH(-@2)
	LD   R@0,Z+
	LD   R@1,Z
	.ENDM

	.MACRO __GETBRSX2
	MOVW R26,R28
	SUBI R26,LOW(-@1)
	SBCI R27,HIGH(-@1)
	LD   R@0,X
	.ENDM

	.MACRO __GETWRSX2
	MOVW R26,R28
	SUBI R26,LOW(-@2)
	SBCI R27,HIGH(-@2)
	LD   R@0,X+
	LD   R@1,X
	.ENDM

	.MACRO __LSLW8SX
	MOVW R30,R28
	SUBI R30,LOW(-@0)
	SBCI R31,HIGH(-@0)
	LD   R31,Z
	CLR  R30
	.ENDM

	.MACRO __PUTB1SX
	MOVW R26,R28
	SUBI R26,LOW(-@0)
	SBCI R27,HIGH(-@0)
	ST   X,R30
	.ENDM

	.MACRO __PUTW1SX
	MOVW R26,R28
	SUBI R26,LOW(-@0)
	SBCI R27,HIGH(-@0)
	ST   X+,R30
	ST   X,R31
	.ENDM

	.MACRO __PUTD1SX
	MOVW R26,R28
	SUBI R26,LOW(-@0)
	SBCI R27,HIGH(-@0)
	ST   X+,R30
	ST   X+,R31
	ST   X+,R22
	ST   X,R23
	.ENDM

	.MACRO __CLRW1SX
	MOVW R26,R28
	SUBI R26,LOW(-@0)
	SBCI R27,HIGH(-@0)
	ST   X+,R30
	ST   X,R30
	.ENDM

	.MACRO __CLRD1SX
	MOVW R26,R28
	SUBI R26,LOW(-@0)
	SBCI R27,HIGH(-@0)
	ST   X+,R30
	ST   X+,R30
	ST   X+,R30
	ST   X,R30
	.ENDM

	.MACRO __PUTB2SX
	MOVW R30,R28
	SUBI R30,LOW(-@0)
	SBCI R31,HIGH(-@0)
	ST   Z,R26
	.ENDM

	.MACRO __PUTW2SX
	MOVW R30,R28
	SUBI R30,LOW(-@0)
	SBCI R31,HIGH(-@0)
	ST   Z+,R26
	ST   Z,R27
	.ENDM

	.MACRO __PUTD2SX
	MOVW R30,R28
	SUBI R30,LOW(-@0)
	SBCI R31,HIGH(-@0)
	ST   Z+,R26
	ST   Z+,R27
	ST   Z+,R24
	ST   Z,R25
	.ENDM

	.MACRO __PUTBSRX
	MOVW R30,R28
	SUBI R30,LOW(-@1)
	SBCI R31,HIGH(-@1)
	ST   Z,R@0
	.ENDM

	.MACRO __PUTWSRX
	MOVW R30,R28
	SUBI R30,LOW(-@2)
	SBCI R31,HIGH(-@2)
	ST   Z+,R@0
	ST   Z,R@1
	.ENDM

	.MACRO __PUTB1SNX
	MOVW R26,R28
	SUBI R26,LOW(-@0)
	SBCI R27,HIGH(-@0)
	LD   R0,X+
	LD   R27,X
	MOV  R26,R0
	SUBI R26,LOW(-@1)
	SBCI R27,HIGH(-@1)
	ST   X,R30
	.ENDM

	.MACRO __PUTW1SNX
	MOVW R26,R28
	SUBI R26,LOW(-@0)
	SBCI R27,HIGH(-@0)
	LD   R0,X+
	LD   R27,X
	MOV  R26,R0
	SUBI R26,LOW(-@1)
	SBCI R27,HIGH(-@1)
	ST   X+,R30
	ST   X,R31
	.ENDM

	.MACRO __PUTD1SNX
	MOVW R26,R28
	SUBI R26,LOW(-@0)
	SBCI R27,HIGH(-@0)
	LD   R0,X+
	LD   R27,X
	MOV  R26,R0
	SUBI R26,LOW(-@1)
	SBCI R27,HIGH(-@1)
	ST   X+,R30
	ST   X+,R31
	ST   X+,R22
	ST   X,R23
	.ENDM

	.MACRO __MULBRR
	MULS R@0,R@1
	MOVW R30,R0
	.ENDM

	.MACRO __MULBRRU
	MUL  R@0,R@1
	MOVW R30,R0
	.ENDM

	.MACRO __MULBRR0
	MULS R@0,R@1
	.ENDM

	.MACRO __MULBRRU0
	MUL  R@0,R@1
	.ENDM

	.MACRO __MULBNWRU
	LDI  R26,@2
	MUL  R26,R@0
	MOVW R30,R0
	MUL  R26,R@1
	ADD  R31,R0
	.ENDM

	.CSEG
	.ORG 0x00

;START OF CODE MARKER
__START_OF_CODE:

;INTERRUPT VECTORS
	JMP  __RESET
	JMP  0x00
	JMP  0x00
	JMP  0x00
	JMP  0x00
	JMP  0x00
	JMP  0x00
	JMP  0x00
	JMP  0x00
	JMP  0x00
	JMP  0x00
	JMP  0x00
	JMP  0x00
	JMP  0x00
	JMP  0x00
	JMP  0x00
	JMP  0x00
	JMP  0x00
	JMP  0x00
	JMP  0x00
	JMP  0x00

_arr:
	.DB  0xFA,0xFF,0xFF,0xFF,0xFF,0xFF,0xEF,0xEF
	.DB  0xEE,0xE7,0xF7,0xEF,0xEF,0xE7,0xE7,0xC7
	.DB  0xC7,0xC7,0x87,0x87,0x87,0x7,0x7,0x7
	.DB  0x7,0x7,0x7,0x7,0x7,0x7,0x7,0x7
	.DB  0x7,0x7,0x7,0x27,0x87,0x1F,0x17,0x7
	.DB  0x7,0x1F,0x17,0xAF,0x97,0x7,0x7,0x7
	.DB  0x97,0x7,0x87,0x7,0x7,0x27,0x7,0x7
	.DB  0x7,0x7,0x87,0x87,0xC7,0xC7,0xE7,0xE7
	.DB  0xE7,0xE7,0xE7,0xE7,0xE7,0xF7,0xE7,0xE7
	.DB  0xEF,0xF7,0xE7,0xE7,0xE7,0xD7,0xC7,0x87
	.DB  0xE7,0x7,0x87,0x67,0x87,0x17,0x7,0xD7
	.DB  0x7,0xD7,0x7,0xF,0x7,0x7,0x47,0x7
	.DB  0x7,0x27,0x17,0x7,0x7,0x7,0x67,0x47
	.DB  0x87,0x7,0x7,0x7,0x7,0xC7,0xC7,0xE7
	.DB  0xF7,0xF7,0xE7,0xE7,0xC7,0xC7,0x87,0xF
	.DB  0xF,0x1F,0x3F,0xFF,0xFF,0xFF,0xFF,0xFF
	.DB  0xFF,0xFF,0xFF,0xFF,0xFF,0xFF,0xFF,0xFF
	.DB  0xFF,0xFF,0xFF,0xFF,0xFF,0xFF,0xFF,0x7F
	.DB  0x7F,0xFF,0x3F,0x3F,0x3F,0xE,0x0,0x0
	.DB  0x0,0x0,0x0,0x0,0x0,0x0,0x0,0xC8
	.DB  0x80,0x10,0x0,0x80,0x28,0x4,0x50,0x93
	.DB  0x61,0x0,0xAA,0x82,0x1,0x2,0x0,0x4
	.DB  0x10,0x2,0x8C,0xC4,0x14,0x2,0x0,0x0
	.DB  0x4,0x1F,0x3F,0x3F,0x7F,0x7F,0xFF,0xFF
	.DB  0xFF,0xFF,0xFF,0xFF,0xFF,0xFF,0xFF,0xFF
	.DB  0xFF,0xFF,0xFF,0xFF,0xFF,0x7F,0x7F,0x3F
	.DB  0x3F,0x5F,0x40,0x20,0xC4,0x0,0x8,0x90
	.DB  0x0,0x10,0x0,0x82,0x8,0x10,0x0,0x0
	.DB  0x8,0x0,0x80,0x40,0xC,0x0,0x20,0x40
	.DB  0x20,0x0,0x20,0x34,0x1F,0x7F,0x7F,0xFF
	.DB  0xFF,0xFF,0xFF,0xFF,0x7F,0xFF,0x9F,0x11
	.DB  0x20,0x10,0x0,0x22,0xFF,0xFF,0xFF,0xFF
	.DB  0xFF,0xFF,0xFF,0xC4,0x60,0x39,0x90,0xDB
	.DB  0xC8,0xCC,0xF4,0xA8,0x80,0x40,0x40,0x0
	.DB  0xA,0x8,0x80,0xC0,0x80,0x0,0x0,0x0
	.DB  0x0,0x0,0x0,0x0,0x0,0x0,0x0,0x0
	.DB  0x0,0x1,0x42,0x41,0x98,0x84,0xC2,0xCE
	.DB  0xE1,0xC6,0xC3,0x88,0x2,0x15,0x91,0xD0
	.DB  0xE4,0x86,0x81,0x1,0x0,0x82,0x0,0x0
	.DB  0x0,0x0,0x0,0x0,0x0,0x0,0x0,0x0
	.DB  0x0,0x0,0x0,0x0,0x0,0x0,0x0,0x80
	.DB  0xC8,0xD0,0xC0,0xC1,0xE0,0xC8,0x90,0xA8
	.DB  0x3,0x30,0x38,0xC,0xA2,0x0,0x0,0x0
	.DB  0x0,0x80,0x8,0x4,0x0,0x48,0x0,0x0
	.DB  0x10,0x0,0xC4,0xD0,0xC0,0x40,0x8,0x0
	.DB  0x0,0x10,0x0,0x4,0x21,0x1,0x0,0x6
	.DB  0x8,0x20,0x80,0x8,0x0,0x45,0x0,0x80
	.DB  0x2,0x2,0x24,0x2,0xFF,0xFF,0xFF,0xFF
	.DB  0xFF,0xFF,0xFF,0xFC,0x7E,0xF,0x87,0x83
	.DB  0xE7,0xC1,0xC5,0xC3,0xE3,0xC3,0xC4,0xC0
	.DB  0x2,0x0,0xFF,0xFF,0xFF,0x0,0x0,0x0
	.DB  0x0,0x0,0x0,0x0,0x0,0x0,0x0,0xE0
	.DB  0xF0,0xFE,0x7E,0x1F,0x7,0x43,0x91,0xC1
	.DB  0x85,0x7,0x17,0x27,0x41,0x16,0xFF,0xFF
	.DB  0xFF,0x9,0x3,0xB,0x87,0x87,0xE,0x1E
	.DB  0x3C,0xF8,0xF0,0xC0,0x0,0x0,0x0,0x0
	.DB  0x0,0x0,0x0,0x0,0x0,0x8,0x0,0xFF
	.DB  0xFF,0xFF,0xE1,0xC1,0xD5,0xE3,0xF7,0xFF
	.DB  0x7F,0xBE,0x4,0x0,0x82,0xE0,0xF0,0xF0
	.DB  0x78,0x38,0x38,0xF8,0xF0,0xF0,0x0,0x0
	.DB  0x0,0x0,0xF1,0xF9,0xF1,0x0,0x0,0xF8
	.DB  0xF8,0xF8,0xF0,0x70,0x38,0x38,0xF9,0xF2
	.DB  0xE1,0x0,0x50,0x39,0x78,0x38,0xFF,0xFF
	.DB  0xFF,0x3C,0x78,0x3E,0xFF,0xFF,0xFF,0xFF
	.DB  0xFF,0xFF,0xFF,0x7F,0xF2,0xEF,0xE3,0xF3
	.DB  0xE3,0xF9,0x71,0x3D,0x3F,0xF,0x83,0x80
	.DB  0x2,0x0,0x7F,0xFF,0xFF,0xE0,0xE0,0xE0
	.DB  0xE0,0xF0,0x70,0x70,0x70,0x20,0x0,0xF
	.DB  0x3F,0x7F,0xF0,0xE2,0xF2,0xE0,0xE1,0x71
	.DB  0x7E,0x79,0x38,0x0,0x0,0x10,0x7F,0x7F
	.DB  0x7F,0xE0,0xE0,0xE0,0xF1,0xE0,0xF0,0x70
	.DB  0x7C,0x3F,0x1F,0x7,0x0,0x0,0x0,0x0
	.DB  0x0,0x0,0x0,0x40,0x0,0x0,0x0,0x7F
	.DB  0xFF,0x7F,0x1,0x1,0x5,0x1,0x0,0x80
	.DB  0x44,0x10,0x0,0x1,0x9F,0x7F,0x7F,0xF0
	.DB  0xE1,0xE0,0xF0,0x7F,0x7F,0xFF,0xE0,0x0
	.DB  0x0,0x0,0x7F,0xFF,0x7F,0x0,0x0,0x7F
	.DB  0xFF,0x7F,0x1,0x0,0x0,0x9,0x7F,0xFF
	.DB  0x7F,0x0,0x8,0x1,0x0,0x0,0x7F,0xFF
	.DB  0x7F,0x40,0x0,0x4,0xFF,0xFF,0xFF,0xFF
	.DB  0xFF,0xFF,0xFF,0x0,0x0,0x0,0x9,0x0
	.DB  0x0,0x1,0x42,0x0,0x0,0x10,0x20,0x12
	.DB  0x4,0x1,0x0,0x0,0x0,0x0,0x0,0x0
	.DB  0x0,0x0,0x0,0x0,0x0,0x0,0x0,0x0
	.DB  0x0,0x0,0x10,0x0,0x0,0x10,0x2,0x0
	.DB  0x3,0x68,0x64,0x8,0xC2,0x31,0x10,0xB0
	.DB  0x50,0x6,0x38,0x2A,0x74,0x0,0x82,0x15
	.DB  0x25,0x60,0x0,0x22,0x0,0xA8,0xA,0x0
	.DB  0x24,0x24,0x80,0x10,0x0,0x8,0xA0,0x0
	.DB  0x5,0x84,0x0,0x10,0x0,0x0,0x40,0x4
	.DB  0x4,0x0,0x2,0x0,0x0,0x4,0x0,0x0
	.DB  0x40,0x20,0x0,0x0,0x0,0x0,0x0,0x0
	.DB  0x0,0x0,0x0,0x0,0x0,0x0,0x0,0x0
	.DB  0x0,0x0,0x0,0x0,0x10,0x0,0x84,0x10
	.DB  0x1,0x4,0x0,0x0,0x19,0x1,0x0,0x28
	.DB  0x0,0x12,0xA,0x40,0xFF,0xFF,0xFF,0xFF
	.DB  0xFF,0xFF,0xFF,0x0,0x0,0x11,0x0,0x4
	.DB  0x80,0x42,0x0,0x0,0x0,0x8,0x0,0x0
	.DB  0x40,0xA0,0x0,0x0,0x0,0xC0,0xF8,0xF8
	.DB  0xFC,0xFC,0xFE,0xFC,0xFC,0xFC,0xF8,0xF8
	.DB  0xC0,0x0,0x40,0x10,0x40,0x21,0x0,0x8
	.DB  0x1,0x8,0x9,0xF6,0xB,0x86,0x51,0x5D
	.DB  0xA,0x42,0x49,0xA,0xC0,0x2A,0xAC,0x42
	.DB  0x1B,0xC6,0x8,0x50,0xFA,0x20,0x1,0x0
	.DB  0x4,0x8,0x8,0x0,0x0,0x2,0x0,0x10
	.DB  0x0,0x80,0x0,0x4,0x80,0x0,0x0,0x40
	.DB  0x4,0x0,0x10,0x1,0x1,0x4,0x0,0x4
	.DB  0x0,0x80,0x80,0x80,0xC0,0xC0,0xC0,0xC0
	.DB  0xE0,0xE0,0xE0,0xE0,0xE0,0xE0,0xF0,0xF0
	.DB  0xF0,0xF0,0xF0,0xF0,0xF0,0xF0,0xF0,0xF0
	.DB  0xF0,0xF0,0xF0,0xF0,0xF4,0xF0,0xF8,0xF0
	.DB  0xF0,0xF0,0xF0,0xF0,0xFF,0xFF,0xFF,0xFF
	.DB  0xFF,0xFF,0xFF,0xFF,0xFC,0xFE,0xFA,0xF0
	.DB  0xE0,0xE8,0xE0,0xE0,0xE8,0xE8,0xE0,0xE8
	.DB  0xE0,0xE0,0xE0,0xE0,0xE0,0xE3,0xFF,0xFF
	.DB  0xFF,0xFF,0xFF,0xFF,0xFF,0xFF,0xFF,0xFF
	.DB  0xE3,0xE0,0xEA,0xE2,0xE0,0xE0,0xF2,0xE0
	.DB  0xE5,0xF4,0xE2,0xE4,0xE6,0xF6,0xF2,0xF8
	.DB  0xC2,0xC0,0xC1,0xE0,0xC0,0xE8,0xE6,0xE6
	.DB  0xF1,0xF9,0xE1,0xE2,0xEA,0xE1,0xEA,0xF0
	.DB  0xE0,0xE8,0xF0,0xE0,0xE0,0xF9,0xE0,0xCC
	.DB  0xC1,0xC0,0xC0,0xC0,0xC0,0xE0,0xE0,0xF0
	.DB  0xF8,0xFD,0xFC,0xFC,0xFF,0xFE,0xFF,0xFF
	.DB  0xFF,0xFF,0xFF,0xFF,0xFF,0xFF,0xFF,0xFF
	.DB  0xFF,0xFF,0xFF,0xFF,0xFF,0xFF,0xFF,0xFF
	.DB  0xFF,0xFF,0xFF,0xFF,0xFF,0xFF,0xFF,0xFF
	.DB  0xFF,0xFF,0xFF,0xFF,0xFF,0xFF,0xFF,0xFF
	.DB  0xFF,0xFF,0xFF,0xFF,0xFF,0xFF,0xFF,0x0
_font:
	.DB  0x0,0x0,0x0,0x0,0x0,0x0,0x0,0x0
	.DB  0x0,0x0,0x0,0x0,0x0,0x0,0x0,0x0
	.DB  0x0,0x0,0x0,0x0,0x0,0x0,0x0,0x0
	.DB  0x0,0x0,0x0,0x0,0x0,0x0,0x0,0x0
	.DB  0x0,0x0,0x0,0x0,0x0,0x0,0x0,0x0
	.DB  0x0,0x0,0x0,0x0,0x0,0x0,0x0,0x0
	.DB  0x0,0x0,0x0,0x0,0x0,0x0,0x0,0x0
	.DB  0x0,0x0,0x0,0x0,0x0,0x0,0x0,0x0
	.DB  0x0,0x0,0x0,0x0,0x0,0x0,0x0,0x0
	.DB  0x0,0x0,0x0,0x0,0x0,0x0,0x0,0x0
	.DB  0x0,0x0,0x0,0x0,0x0,0x0,0x0,0x0
	.DB  0x0,0x0,0x0,0x0,0x0,0x0,0x0,0x0
	.DB  0x0,0x0,0x0,0x0,0x0,0x0,0x0,0x0
	.DB  0x0,0x0,0x0,0x0,0x0,0x0,0x0,0x0
	.DB  0x0,0x0,0x0,0x0,0x0,0x0,0x0,0x0
	.DB  0x0,0x0,0x0,0x0,0x0,0x0,0x0,0x0
	.DB  0x20,0x20,0x28,0x28,0x68,0xB0,0x60,0x20
	.DB  0x20,0x20,0x28,0x2A,0x28,0x30,0x20,0x20
	.DB  0x0,0x80,0x80,0x44,0x32,0x24,0x20,0x20
	.DB  0x0,0x24,0x24,0x24,0x38,0x20,0x20,0x20
	.DB  0x20,0x20,0x20,0x20,0x24,0x2A,0x11,0x0
	.DB  0x20,0x20,0x20,0x24,0x2A,0x11,0x20,0x20
	.DB  0x30,0x20,0x20,0x20,0x24,0x2A,0x11,0x20
	.DB  0x20,0x20,0x30,0x20,0x30,0x28,0x28,0x18
	.DB  0x20,0x24,0x22,0x21,0x24,0x2A,0x11,0x0
	.DB  0x24,0x22,0x21,0x24,0x2A,0x11,0x20,0x20
	.DB  0x30,0x24,0x22,0x21,0x24,0x2A,0x11,0x20
	.DB  0x0,0x80,0x80,0x40,0x30,0x20,0x20,0x20
	.DB  0x20,0x20,0x20,0x60,0xA0,0x60,0x28,0x30
	.DB  0x20,0x20,0x20,0x60,0xB0,0x60,0x20,0x20
	.DB  0x0,0x30,0x28,0x60,0xA0,0x60,0x30,0x20
	.DB  0x0,0x4,0x6,0x1D,0x25,0x24,0x20,0x20
	.DB  0x0,0x0,0x0,0x0,0x0,0x0,0x0,0x0
	.DB  0x0,0x0,0x4F,0x0,0x0,0x0,0x0,0x0
	.DB  0x0,0x7,0x0,0x7,0x0,0x0,0x0,0x0
	.DB  0x0,0x14,0x7F,0x14,0x7F,0x14,0x0,0x0
	.DB  0x0,0x24,0x2A,0x7F,0x2A,0x12,0x0,0x0
	.DB  0x0,0x23,0x13,0x8,0x64,0x62,0x0,0x0
	.DB  0x0,0x36,0x49,0x55,0x22,0x40,0x0,0x0
	.DB  0x0,0x0,0x5,0x3,0x0,0x0,0x0,0x0
	.DB  0x0,0x1C,0x22,0x41,0x0,0x0,0x0,0x0
	.DB  0x0,0x41,0x22,0x1C,0x0,0x0,0x0,0x0
	.DB  0x0,0x14,0x8,0x3E,0x8,0x14,0x0,0x0
	.DB  0x0,0x8,0x8,0x3E,0x8,0x8,0x0,0x0
	.DB  0x0,0x0,0x28,0x18,0x0,0x0,0x0,0x0
	.DB  0x0,0x8,0x8,0x8,0x8,0x8,0x8,0x0
	.DB  0x0,0x30,0x30,0x0,0x0,0x0,0x0,0x0
	.DB  0x0,0x20,0x10,0x8,0x4,0x2,0x0,0x0
	.DB  0x0,0x3E,0x51,0x49,0x45,0x3E,0x0,0x0
	.DB  0x0,0x0,0x42,0x7F,0x40,0x0,0x0,0x0
	.DB  0x0,0x42,0x61,0x51,0x49,0x46,0x0,0x0
	.DB  0x0,0x21,0x41,0x45,0x4B,0x31,0x0,0x0
	.DB  0x0,0x18,0x14,0x12,0x7F,0x10,0x0,0x0
	.DB  0x0,0x0,0x27,0x45,0x45,0x45,0x39,0x0
	.DB  0x0,0x3C,0x4A,0x49,0x49,0x30,0x0,0x0
	.DB  0x0,0x1,0x71,0x9,0x5,0x3,0x0,0x0
	.DB  0x0,0x36,0x49,0x49,0x49,0x36,0x0,0x0
	.DB  0x0,0x6,0x49,0x49,0x29,0x1E,0x0,0x0
	.DB  0x0,0x0,0x36,0x36,0x0,0x0,0x0,0x0
	.DB  0x0,0x0,0x56,0x36,0x0,0x0,0x0,0x0
	.DB  0x0,0x8,0x14,0x22,0x41,0x0,0x0,0x0
	.DB  0x0,0x24,0x24,0x24,0x24,0x24,0x0,0x0
	.DB  0x0,0x0,0x41,0x22,0x14,0x8,0x0,0x0
	.DB  0x0,0x2,0x1,0x51,0x9,0x6,0x0,0x0
	.DB  0x0,0x32,0x49,0x79,0x41,0x3E,0x0,0x0
	.DB  0x0,0x7E,0x11,0x11,0x11,0x7E,0x0,0x0
	.DB  0x0,0x7F,0x49,0x49,0x49,0x36,0x0,0x0
	.DB  0x0,0x3E,0x41,0x41,0x41,0x22,0x0,0x0
	.DB  0x0,0x7F,0x41,0x41,0x22,0x1C,0x0,0x0
	.DB  0x0,0x7F,0x49,0x49,0x49,0x41,0x0,0x0
	.DB  0x0,0x7F,0x9,0x9,0x9,0x1,0x0,0x0
	.DB  0x0,0x3E,0x41,0x49,0x49,0x3A,0x0,0x0
	.DB  0x0,0x7F,0x8,0x8,0x8,0x7F,0x0,0x0
	.DB  0x0,0x0,0x41,0x7F,0x41,0x0,0x0,0x0
	.DB  0x0,0x20,0x40,0x41,0x3F,0x1,0x0,0x0
	.DB  0x0,0x7F,0x8,0x14,0x22,0x41,0x0,0x0
	.DB  0x0,0x7F,0x40,0x40,0x40,0x40,0x0,0x0
	.DB  0x0,0x7F,0x2,0xC,0x2,0x7F,0x0,0x0
	.DB  0x0,0x7F,0x4,0x8,0x10,0x7F,0x0,0x0
	.DB  0x0,0x3E,0x41,0x41,0x41,0x3E,0x0,0x0
	.DB  0x0,0x7F,0x9,0x9,0x9,0x6,0x0,0x0
	.DB  0x3E,0x41,0x51,0x21,0x5E,0x0,0x0,0x0
	.DB  0x0,0x7F,0x9,0x19,0x29,0x46,0x0,0x0
	.DB  0x0,0x46,0x49,0x49,0x49,0x31,0x0,0x0
	.DB  0x0,0x1,0x1,0x7F,0x1,0x1,0x0,0x0
	.DB  0x0,0x3F,0x40,0x40,0x40,0x3F,0x0,0x0
	.DB  0x0,0x1F,0x20,0x40,0x20,0x1F,0x0,0x0
	.DB  0x0,0x3F,0x40,0x60,0x40,0x3F,0x0,0x0
	.DB  0x0,0x63,0x14,0x8,0x14,0x63,0x0,0x0
	.DB  0x0,0x7,0x8,0x70,0x8,0x7,0x0,0x0
	.DB  0x0,0x61,0x51,0x49,0x45,0x43,0x0,0x0
	.DB  0x0,0x7F,0x41,0x41,0x0,0x0,0x0,0x0
	.DB  0x0,0x15,0x16,0x7C,0x16,0x15,0x0,0x0
	.DB  0x0,0x41,0x41,0x7F,0x0,0x0,0x0,0x0
	.DB  0x0,0x4,0x2,0x1,0x2,0x4,0x0,0x0
	.DB  0x0,0x40,0x40,0x40,0x40,0x40,0x0,0x0
	.DB  0x0,0x1,0x2,0x4,0x0,0x0,0x0,0x0
	.DB  0x0,0x20,0x54,0x54,0x54,0x78,0x0,0x0
	.DB  0x0,0x7F,0x44,0x44,0x44,0x38,0x0,0x0
	.DB  0x0,0x38,0x44,0x44,0x44,0x0,0x0,0x0
	.DB  0x0,0x38,0x44,0x44,0x48,0x7F,0x0,0x0
	.DB  0x0,0x38,0x54,0x54,0x54,0x18,0x0,0x0
	.DB  0x0,0x10,0x7E,0x11,0x1,0x2,0x0,0x0
	.DB  0x0,0xC,0x52,0x52,0x52,0x3E,0x0,0x0
	.DB  0x0,0x7F,0x8,0x4,0x4,0x78,0x0,0x0
	.DB  0x0,0x0,0x44,0x7D,0x40,0x0,0x0,0x0
	.DB  0x0,0x20,0x40,0x40,0x3D,0x0,0x0,0x0
	.DB  0x0,0x7F,0x10,0x28,0x44,0x0,0x0,0x0
	.DB  0x0,0x0,0x41,0x7F,0x40,0x0,0x0,0x0
	.DB  0x0,0x7C,0x4,0x18,0x4,0x78,0x0,0x0
	.DB  0x0,0x7C,0x8,0x4,0x4,0x78,0x0,0x0
	.DB  0x0,0x38,0x44,0x44,0x44,0x38,0x0,0x0
	.DB  0x0,0x7C,0x14,0x14,0x14,0x8,0x0,0x0
	.DB  0x0,0x8,0x14,0x14,0x18,0x7C,0x0,0x0
	.DB  0x0,0x7C,0x8,0x4,0x4,0x8,0x0,0x0
	.DB  0x0,0x48,0x54,0x54,0x54,0x20,0x0,0x0
	.DB  0x0,0x4,0x3F,0x44,0x40,0x20,0x0,0x0
	.DB  0x0,0x3C,0x40,0x40,0x20,0x7C,0x0,0x0
	.DB  0x0,0x1C,0x20,0x40,0x20,0x1C,0x0,0x0
	.DB  0x0,0x1E,0x20,0x10,0x20,0x1E,0x0,0x0
	.DB  0x0,0x22,0x14,0x8,0x14,0x22,0x0,0x0
	.DB  0x0,0x6,0x48,0x48,0x48,0x3E,0x0,0x0
	.DB  0x0,0x44,0x64,0x54,0x4C,0x44,0x0,0x0
	.DB  0x0,0x8,0x36,0x41,0x0,0x0,0x0,0x0
	.DB  0x0,0x0,0x0,0x7F,0x0,0x0,0x0,0x0
	.DB  0x0,0x41,0x36,0x8,0x0,0x0,0x0,0x0
	.DB  0x0,0x8,0x8,0x2A,0x1C,0x8,0x0,0x0
	.DB  0x0,0x8,0x1C,0x2A,0x8,0x8,0x0,0x0
	.DB  0x0,0x3C,0x42,0x41,0x42,0x3C,0x0,0x0
	.DB  0x0,0x30,0x28,0x60,0xA0,0x60,0x28,0x30
	.DB  0x20,0x20,0x20,0x20,0xA0,0x20,0x28,0x30
	.DB  0x20,0x20,0x20,0x20,0xB0,0x20,0x20,0x20
	.DB  0x0,0x30,0x28,0x20,0xA0,0x20,0x30,0x20
	.DB  0x20,0x20,0x20,0x22,0x20,0x22,0x28,0x30
	.DB  0x20,0x20,0x20,0x22,0x30,0x22,0x20,0x20
	.DB  0x0,0x30,0x28,0x22,0x20,0x22,0x30,0x20
	.DB  0x20,0x20,0x20,0x22,0x21,0x22,0x28,0x30
	.DB  0x20,0x20,0x20,0x22,0x31,0x22,0x20,0x20
	.DB  0x0,0x30,0x28,0x22,0x21,0x22,0x30,0x20
	.DB  0x20,0x20,0x28,0x28,0x28,0xB0,0x20,0x20
	.DB  0x20,0x20,0x28,0x28,0x28,0x30,0x20,0x20
	.DB  0x0,0xC0,0xA8,0x28,0x68,0xB0,0x60,0x20
	.DB  0x0,0x0,0x80,0x80,0x44,0x32,0x4,0x0
	.DB  0x0,0x24,0x25,0x24,0x38,0x20,0x20,0x20
	.DB  0x30,0x24,0x22,0x21,0x24,0x2A,0x11,0x0
	.DB  0x0,0x80,0x80,0x40,0x34,0x20,0x20,0x20
	.DB  0x20,0x20,0x20,0x38,0x20,0x38,0x20,0x18
	.DB  0x20,0x20,0x38,0x20,0x38,0x20,0x38,0x20
	.DB  0x60,0x80,0x80,0x78,0x20,0x38,0x20,0x18
	.DB  0x20,0x20,0x20,0x38,0x22,0x39,0x22,0x18
	.DB  0x20,0x20,0x38,0x22,0x39,0x22,0x38,0x20
	.DB  0x60,0x80,0x80,0x78,0x22,0x39,0x22,0x18
	.DB  0x30,0x20,0x20,0x20,0x24,0x2A,0x11,0x0
	.DB  0x20,0x30,0x20,0x30,0x28,0x28,0x38,0x20
	.DB  0x60,0x80,0x80,0x60,0x30,0x28,0x28,0x38
	.DB  0x20,0x20,0x30,0x20,0x30,0x28,0x2A,0x18
	.DB  0x20,0x30,0x20,0x30,0x28,0x2A,0x38,0x20
	.DB  0x60,0x80,0x80,0x60,0x30,0x28,0x2A,0x38
	.DB  0x20,0x20,0x3E,0x30,0x28,0x28,0x38,0x20
	.DB  0x20,0x20,0x3E,0x30,0x28,0x2A,0x38,0x20
	.DB  0x20,0x20,0x20,0x20,0x30,0x28,0x28,0x0
	.DB  0x20,0x20,0x20,0x30,0x28,0x28,0x20,0x20
	.DB  0x0,0x40,0xA0,0xB0,0x28,0x28,0x20,0x20
	.DB  0x20,0x20,0x20,0x20,0x30,0x28,0x2A,0x0
	.DB  0x20,0x20,0x20,0x30,0x28,0x2A,0x20,0x20
	.DB  0x0,0x40,0xA0,0xB0,0x28,0x2A,0x20,0x20
	.DB  0x20,0x20,0x20,0x20,0x30,0x28,0x2A,0x30
	.DB  0x20,0x20,0x30,0x28,0x2A,0x30,0x20,0x20
	.DB  0x0,0x18,0x20,0x20,0x30,0x28,0x2A,0x30
	.DB  0x20,0x20,0x20,0x20,0x30,0x2A,0x28,0x32
	.DB  0x20,0x20,0x30,0x2A,0x28,0x32,0x20,0x20
	.DB  0x60,0x80,0x80,0xB2,0xA8,0x7A,0x20,0x20
	.DB  0x22,0x25,0x25,0x25,0x25,0x25,0x25,0x19
	.DB  0x20,0x20,0x20,0x1C,0x22,0x21,0x20,0x20
	.DB  0x30,0x28,0x2C,0x2A,0x20,0x3F,0x20,0x20
	.DB  0x20,0x20,0x20,0x20,0x20,0x20,0x1F,0x0
	.DB  0x20,0x20,0x20,0x20,0x1F,0x20,0x20,0x20
	.DB  0x0,0x30,0x40,0x40,0x3F,0x20,0x20,0x20
	.DB  0x20,0x20,0x20,0x20,0x30,0x48,0x48,0x30
	.DB  0x20,0x20,0x30,0x48,0x48,0x30,0x20,0x20
	.DB  0x80,0x40,0x30,0x48,0x48,0x30,0x20,0x20
	.DB  0x20,0x20,0x20,0x20,0x22,0x20,0x18,0x0
	.DB  0x20,0x20,0x20,0x20,0x1A,0x20,0x20,0x20
	.DB  0x30,0x40,0x44,0x40,0x30,0x20,0x20,0x20
	.DB  0x20,0x20,0x20,0x30,0x28,0x3A,0x2C,0x18
	.DB  0x20,0x20,0x30,0x28,0x3A,0x2C,0x38,0x20
	.DB  0x0,0x18,0x14,0x14,0x18,0x20,0x20,0x20
	.DB  0x0,0x21,0x22,0x24,0x28,0x10,0xF,0x0
	.DB  0x0,0xB0,0xA8,0x78,0x20,0x20,0x20,0x20
	.DB  0x20,0x20,0x20,0xA0,0x20,0xA0,0x28,0x30
	.DB  0x20,0x20,0x20,0xA0,0x30,0xA0,0x20,0x20
	.DB  0x0,0x60,0x80,0x80,0xA0,0x50,0x10,0x20
	.DB  0x0,0x1E,0x20,0x20,0x20,0x20,0x20,0x20
	.DB  0x0,0x20,0x30,0x28,0x28,0x20,0x0,0x0
	.DB  0x0,0x4,0x2,0x2,0x3A,0x2,0x2,0x1
	.DB  0x0,0x0,0x4,0x6,0x3D,0x5,0x4,0x0
	.DB  0x0,0x0,0x4,0xB6,0xAD,0x7D,0x4,0x0
	.DB  0x0,0x0,0x80,0xC0,0xBF,0xA0,0x80,0x0
	.DB  0x4,0x66,0x85,0x95,0xA8,0xA8,0x48,0x0
	.DB  0x0,0x0,0x0,0x3F,0x0,0x0,0x0,0x0
	.DB  0x0,0x30,0x28,0x20,0xA0,0x20,0x28,0x30
	.DB  0x0,0x0,0x30,0x2A,0x28,0x32,0x0,0x0
	.DB  0x0,0x30,0x28,0x22,0x20,0x22,0x28,0x30
	.DB  0x0,0x30,0x28,0x22,0x21,0x22,0x28,0x30
	.DB  0x0,0xC0,0xA8,0xA8,0x28,0xB0,0x20,0x20
	.DB  0x0,0xC0,0xA8,0xA8,0xA8,0x30,0x20,0x20
	.DB  0x0,0xC0,0xA8,0xAA,0x28,0x30,0x20,0x20
	.DB  0x0,0x0,0x24,0x24,0x24,0x38,0x0,0x0
	.DB  0x0,0x0,0x24,0x25,0x24,0x38,0x0,0x0
	.DB  0x0,0x80,0x80,0x40,0x30,0x0,0x0,0x0
	.DB  0x0,0x0,0x80,0x80,0x40,0x34,0x0,0x0
	.DB  0x60,0x80,0x80,0x78,0x20,0x38,0x20,0x18
	.DB  0x60,0x80,0x80,0x78,0x22,0x39,0x22,0x18
	.DB  0x60,0x80,0x80,0x60,0x30,0x28,0x28,0x18
	.DB  0x60,0x80,0x80,0x60,0x30,0x28,0x2A,0x18
	.DB  0x0,0x22,0x14,0x8,0x14,0x22,0x0,0x0
	.DB  0x20,0x20,0x3E,0x30,0x28,0x28,0x18,0x0
	.DB  0x20,0x20,0x3E,0x30,0x28,0x2A,0x18,0x0
	.DB  0x0,0x0,0x40,0xA0,0xB0,0x28,0x28,0x0
	.DB  0x0,0x0,0x40,0xA0,0xB0,0x2A,0x28,0x0
	.DB  0x20,0x20,0x20,0x20,0x20,0x20,0x20,0x20
	.DB  0x0,0x18,0x20,0x20,0x30,0x28,0x2A,0x30
	.DB  0x0,0x60,0x80,0x80,0xB2,0xA8,0x7A,0x0
	.DB  0x0,0x30,0x28,0x2C,0x2A,0x20,0x3F,0x0
	.DB  0x0,0x40,0xA9,0xAA,0xA8,0xF0,0x0,0x0
	.DB  0x0,0x0,0x60,0x80,0x80,0x7E,0x0,0x0
	.DB  0x0,0x40,0xAA,0xA9,0xAA,0xF0,0x0,0x0
	.DB  0x0,0x0,0xC0,0x20,0x30,0x28,0x28,0x30
	.DB  0x0,0x0,0x60,0x80,0x88,0x80,0x60,0x0
	.DB  0x0,0x0,0x30,0x28,0x28,0x30,0x0,0x0
	.DB  0x0,0x0,0x0,0xB0,0xA8,0x78,0x0,0x0
	.DB  0x4,0x26,0x25,0x25,0x28,0x10,0xF,0x0
	.DB  0x4,0x22,0x22,0x26,0x29,0x10,0xF,0x0
	.DB  0x0,0x21,0x22,0x24,0xA8,0xD0,0xAF,0xA0
	.DB  0x0,0x70,0xAA,0xA9,0xAA,0x30,0x0,0x0
	.DB  0x0,0x70,0xAA,0xA8,0xAA,0x30,0x0,0x0
	.DB  0x0,0x30,0x40,0x40,0x50,0x28,0x8,0x0
	.DB  0x0,0x30,0xC0,0x40,0xD0,0x28,0x8,0x0
	.DB  0x0,0x0,0x2,0x79,0x2,0x0,0x0,0x0
	.DB  0x0,0x0,0x2,0x78,0x2,0x0,0x0,0x0
	.DB  0x0,0x0,0x0,0x0,0x0,0x5,0x5,0x5
	.DB  0x0,0x0,0x0,0x4,0x3,0xB,0x6,0x6
	.DB  0xA0,0xA0,0xA0,0x0,0x0,0x0,0x0,0x0
	.DB  0x0,0x0,0x1,0x1,0x1,0x1,0x0,0x0
	.DB  0x0,0x21,0x22,0x24,0x28,0x10,0x2F,0x20
	.DB  0x0,0x0,0x0,0x0,0x0,0x4,0x3,0x3
	.DB  0x0,0x0,0x80,0x80,0x80,0x80,0x0,0x0
	.DB  0x0,0x0,0x10,0x10,0x54,0x10,0x10,0x0
	.DB  0x0,0x0,0x2,0x4,0x2,0x4,0x2,0x0
	.DB  0x20,0x24,0x26,0x25,0x25,0x20,0x28,0x30
	.DB  0x20,0x24,0x26,0x25,0x35,0x20,0x20,0x20
	.DB  0x8,0x6C,0x8A,0x8A,0xA0,0x50,0x10,0x20
	.DB  0x4,0xB6,0xAD,0x7D,0x24,0x20,0x20,0x20
	.DB  0x0,0x19,0x14,0x15,0x18,0x20,0x20,0x20
	.DB  0x4,0x2,0x2,0x1A,0x22,0x22,0x21,0x20
	.DB  0x0,0x40,0x60,0x50,0x48,0x50,0x40,0x40
_map:
	.DB  0xC1,0xC1,0xC1,0xC1,0x0,0x0,0xC2,0xC2
	.DB  0xFE,0xFE,0x1,0x0,0xC3,0xC3,0x1F,0x1F
	.DB  0x1,0x0,0xC4,0xC4,0xFC,0xFC,0x1,0x0
	.DB  0xC5,0xC5,0xC5,0xC5,0x1,0x1,0xC6,0xBD
	.DB  0xBF,0xBE,0x1,0x1,0xC7,0xC7,0xC0,0xC0
	.DB  0x1,0x0,0xC8,0x82,0x84,0x83,0x1,0x1
	.DB  0xC9,0xC9,0xFD,0xFD,0x1,0x0,0xCA,0x85
	.DB  0x87,0x86,0x1,0x1,0xCB,0x88,0x8A,0x89
	.DB  0x1,0x1,0xCC,0x8B,0xCC,0x8B,0x1,0x1
	.DB  0xCD,0x8C,0xCD,0x8C,0x1,0x1,0xCE,0x11
	.DB  0xCE,0x11,0x1,0x1,0xCF,0xCF,0x13,0x13
	.DB  0x1,0x0,0xD0,0xD0,0x8F,0x8F,0x1,0x0
	.DB  0xD1,0xD1,0x1B,0x1B,0x1,0x0,0xD2,0xD2
	.DB  0x91,0x91,0x1,0x0,0xD3,0x92,0x94,0x93
	.DB  0x1,0x1,0xD4,0x95,0x97,0x96,0x1,0x1
	.DB  0xD5,0x17,0x9A,0x99,0x1,0x1,0xD6,0x9B
	.DB  0x9D,0x9C,0x1,0x1,0xD7,0xD7,0xD7,0xD7
	.DB  0x0,0x0,0xD8,0xD8,0x9E,0x9E,0x1,0x1
	.DB  0xD9,0xD9,0x9F,0x9F,0x1,0x1,0xDA,0xA0
	.DB  0xA2,0xA1,0x1,0x1,0xDB,0xA3,0xA5,0xA4
	.DB  0x1,0x1,0xDC,0xDC,0xDC,0xDC,0x0,0x0
	.DB  0xDD,0xA6,0xA8,0xA7,0x1,0x1,0xDE,0xA9
	.DB  0xAB,0xAA,0x1,0x1,0xDF,0xAC,0xAE,0xAD
	.DB  0x1,0x1,0xE0,0xE0,0xE0,0xE0,0x0,0x0
	.DB  0xE1,0xAF,0xB1,0xB0,0x1,0x1,0xE2,0xE2
	.DB  0xE2,0xE2,0x0,0x0,0xE3,0xB2,0xB4,0xB3
	.DB  0x1,0x1,0xE4,0xB5,0xB7,0xB6,0x1,0x1
	.DB  0xE5,0xB8,0xBA,0xB9,0x1,0x1,0xE6,0xE6
	.DB  0xBC,0xBC,0x1,0x0,0xE7,0xE7,0xE7,0xE7
	.DB  0x0,0x0,0xE8,0xE8,0xE8,0xE8,0x0,0x0
	.DB  0xE9,0xE9,0xE9,0xE9,0x0,0x0,0xEA,0xEA
	.DB  0xEA,0xEA,0x0,0x0,0xEB,0xEB,0xEB,0xEB
	.DB  0x0,0x0,0xEC,0xBD,0xBF,0xBE,0x1,0x1
	.DB  0xED,0xBD,0xBF,0xBE,0x1,0x1,0xEE,0xEE
	.DB  0xEE,0xEE,0x0,0x0,0xEF,0xEF,0xEF,0xEF
	.DB  0x0,0x0,0xF0,0xF0,0xF0,0xF0,0x0,0x0
	.DB  0xF1,0xF1,0xF1,0xF1,0x0,0x0,0xF2,0xF2
	.DB  0xF2,0xF2,0x0,0x0,0xF3,0xF3,0xF3,0xF3
	.DB  0x0,0x0,0xF5,0xF5,0xF5,0xF5,0x0,0x0
	.DB  0xF6,0xF6,0xF6,0xF6,0x0,0x0,0xF7,0xF7
	.DB  0xF7,0xF7,0x0,0x0,0xF8,0xF8,0xF8,0xF8
	.DB  0x0,0x0,0xFB,0xF9,0xFB,0xFA,0x1,0x1
	.DB  0xBB,0xBB,0xF4,0xF4,0x1,0x0,0x81,0x1C
	.DB  0x1E,0x1D,0x1,0x1,0x90,0x18,0x1A,0x19
	.DB  0x1,0x1,0x98,0x14,0x16,0x15,0x1,0x1
	.DB  0x8E,0x8E,0x12,0x12,0x1,0x0,0x8D,0x10
	.DB  0x8D,0x10,0x1,0x1
_seq2:
	.DB  0x0,0x0,0x0,0x0,0x0,0x0,0x0,0x0
	.DB  0x0,0x0,0x0,0x0,0x80,0x0,0x0,0x40
	.DB  0x80,0x80,0x0,0x0,0x0,0x40,0x40,0xC0
	.DB  0xC0,0xD8,0x90,0x90,0x90,0x20,0x60,0xE0
	.DB  0xE0,0xE0,0xE0,0xE0,0xE0,0xC0,0xC0,0x80
	.DB  0x40,0x80,0x80,0x0,0x0,0x0,0x0,0x0
	.DB  0x0,0x0,0x0,0x0,0x0,0x0,0x0,0x0
	.DB  0x0,0x0,0x0,0x0,0x0,0x0,0x0,0x0
	.DB  0x0,0x0,0x0,0x0,0x0,0x0,0x0,0x0
	.DB  0x0,0x0,0x0,0x0,0x0,0x0,0x0,0x0
	.DB  0x0,0x0,0x0,0x0,0x0,0x0,0x0,0x0
	.DB  0x0,0x0,0x0,0x0,0x0,0x0,0x0,0x0
	.DB  0x0,0x0,0x0,0x0,0x0,0x0,0x0,0x0
	.DB  0x0,0x0,0x0,0x0,0x0,0x0,0x0,0x0
	.DB  0x0,0x0,0x0,0x0,0x0,0x0,0x0,0x0
	.DB  0x0,0x0,0x0,0x0,0x0,0x0,0x0,0x0
	.DB  0x0,0x0,0x0,0x0,0x0,0x0,0x0,0x10
	.DB  0x10,0x4,0x8,0x38,0x1,0x1,0x5,0xD
	.DB  0x1,0x1,0x4,0x1,0xE,0xE,0x4,0x4
	.DB  0x1,0x9,0x5,0x5,0x5,0xD,0xA,0x1F
	.DB  0x17,0xF,0xF,0x1F,0x1F,0x3F,0x7F,0xFF
	.DB  0xFC,0xFC,0xF8,0xF8,0xF8,0xF8,0xF2,0xE2
	.DB  0xF4,0xFE,0xFC,0xF8,0xFA,0xFE,0xEC,0x1C
	.DB  0xB0,0xC0,0xE2,0x7C,0xF2,0x78,0xC0,0x0
	.DB  0x80,0x0,0x80,0x0,0x0,0x0,0x0,0x0
	.DB  0x0,0x0,0x0,0x0,0x0,0x0,0x0,0x0
	.DB  0x0,0x0,0x0,0x0,0x0,0x0,0x0,0x0
	.DB  0x0,0x0,0x0,0x0,0x0,0x0,0x0,0x0
	.DB  0x0,0x0,0x0,0x0,0x0,0x0,0x0,0x0
	.DB  0x0,0x0,0x0,0x0,0x0,0x0,0x0,0x0
	.DB  0x0,0x0,0x0,0x0,0x0,0x0,0x0,0x0
	.DB  0x0,0x0,0x0,0x0,0x0,0x0,0x0,0x0
	.DB  0x0,0x0,0x0,0x0,0x0,0x0,0x0,0x0
	.DB  0x0,0x0,0x0,0x0,0x0,0x0,0x0,0x0
	.DB  0x0,0x0,0x0,0x0,0x0,0x0,0x0,0x0
	.DB  0x0,0x0,0x0,0x0,0x0,0x0,0x0,0x0
	.DB  0x80,0x80,0x80,0x80,0x80,0xC0,0x80,0xC0
	.DB  0x81,0x81,0x81,0x81,0x81,0x81,0x83,0x81
	.DB  0x83,0x3,0x7,0x4,0x1,0xB,0x5,0x3
	.DB  0x7,0xF,0x1F,0x3E,0x10,0x0,0x7,0x1F
	.DB  0x3F,0x38,0x3,0x1E,0x0,0x0,0x1C,0x0
	.DB  0x0,0x0,0x0,0x0,0x0,0x0,0x0,0x0
	.DB  0x0,0x0,0x0,0x0,0x0,0x0,0x0,0x0
	.DB  0x0,0x0,0x0,0x0,0x0,0x0,0x0,0x0
	.DB  0x0,0x0,0x0,0x0,0x0,0x0,0x0,0x0
	.DB  0x0,0x0,0x0,0x0,0x0,0x0,0x0,0x0
	.DB  0x0,0x0,0x0,0x0,0x0,0x0,0x0,0x0
	.DB  0x0,0x0,0x0,0x0,0x0,0x0,0x0,0x0
	.DB  0x0,0x0,0x0,0x0,0x0,0x0,0x0,0x0
	.DB  0x0,0x0,0x0,0x0,0x0,0x0,0x0,0x0
	.DB  0x0,0x0,0x70,0xF0,0xEC,0xFE,0xF6,0xF2
	.DB  0xF3,0xF9,0xFB,0xFF,0xFF,0x7F,0x3F,0x3D
	.DB  0x3F,0xFF,0xFE,0xFC,0xFC,0xFF,0xFF,0xFF
	.DB  0xFF,0xFF,0xFF,0xFF,0xFF,0xFF,0xFF,0xFF
	.DB  0xFF,0xFF,0xFF,0xFE,0xFE,0xFE,0xFE,0xFC
	.DB  0xFC,0xF8,0xF0,0xF0,0xE0,0xC0,0x80,0x0
	.DB  0x0,0x0,0x0,0x0,0x0,0x0,0x0,0x0
	.DB  0x0,0x0,0x0,0x0,0x0,0x0,0x0,0x0
	.DB  0x0,0x0,0x0,0x0,0x0,0x0,0x0,0x0
	.DB  0x0,0x0,0x0,0x0,0x0,0x0,0x0,0x0
	.DB  0x0,0x0,0x0,0x0,0x0,0x0,0x0,0x0
	.DB  0x0,0x0,0x0,0x0,0x0,0x0,0x0,0x0
	.DB  0x0,0x0,0x0,0x0,0x0,0x0,0x0,0x0
	.DB  0x0,0x0,0x0,0x0,0x0,0x0,0x0,0x0
	.DB  0x0,0x0,0x0,0x0,0x0,0x0,0x0,0x0
	.DB  0x0,0x0,0x8,0x8,0x0,0x0,0x8,0xC
	.DB  0x7C,0x38,0x3C,0x7E,0x7F,0x7F,0x1F,0x1F
	.DB  0x37,0x3,0x1,0x0,0x0,0x0,0x0,0x0
	.DB  0xF,0x7F,0xFF,0xFF,0xFF,0xFF,0xFF,0xFC
	.DB  0xFC,0xFE,0xFF,0xFF,0xFF,0xFF,0xFF,0xFF
	.DB  0xFF,0x7F,0x1F,0x0,0x1,0x3,0x7,0x7
	.DB  0xF,0x1C,0x39,0x71,0x60,0xC3,0x87,0x8F
	.DB  0x2,0x0,0x0,0x0,0x0,0x0,0x0,0x0
	.DB  0x0,0x0,0x0,0x0,0x0,0x0,0x0,0x0
	.DB  0x0,0x0,0x0,0x0,0x0,0x0,0x0,0x0
	.DB  0x0,0x0,0x0,0x0,0x0,0x0,0x0,0x0
	.DB  0x0,0x0,0x0,0x0,0x0,0x0,0x0,0x0
	.DB  0x0,0x0,0x0,0x0,0x0,0x0,0x0,0x0
	.DB  0x0,0x0,0x0,0x0,0x0,0x0,0x0,0x0
	.DB  0x0,0x0,0x0,0x0,0x0,0x0,0x0,0x0
	.DB  0x0,0x0,0x0,0x0,0x0,0x0,0x0,0x0
	.DB  0x0,0x0,0x0,0x0,0x0,0x0,0x0,0x0
	.DB  0x0,0x0,0x0,0x0,0x1,0x7,0x1B,0x18
	.DB  0xC,0xC,0x4,0x8,0x0,0x60,0x20,0x60
	.DB  0x60,0x40,0x20,0x1,0x3,0x7,0xC7,0x7
	.DB  0xF,0x8F,0x7,0x7,0x7,0x7,0x3,0x1
	.DB  0x0,0x0,0x0,0x0,0x0,0x0,0x0,0x0
	.DB  0x0,0x0,0x0,0x0,0x0,0x1,0x0,0x0
	.DB  0x0,0x0,0x0,0x0,0x0,0x0,0x0,0x0
	.DB  0x0,0x0,0x0,0x0,0x0,0x0,0x0,0x0
	.DB  0x0,0x0,0x0,0x0,0x0,0x0,0x0,0x0
	.DB  0x0,0x0,0x0,0x0,0x0,0x0,0x0,0x0
	.DB  0x0,0x0,0x0,0x0,0x0,0x0,0x0,0x0
	.DB  0x0,0x0,0x0,0x0,0x0,0x0,0x0,0x0
	.DB  0x0,0x0,0x0,0x0,0x0,0x0,0x0,0x0
	.DB  0x0,0x0,0x0,0x0,0x0,0x0,0x0,0x0
	.DB  0x0,0x0,0x0,0x0,0x0,0x0,0x0,0x0
	.DB  0x0,0x0,0x0,0x0,0x0,0x0,0x0,0x0
	.DB  0x0,0x0,0x0,0x0,0x0,0x0,0x0,0x0
	.DB  0x0,0x0,0x0,0x0,0x0,0x0,0x0,0x0
	.DB  0x0,0x0,0x0,0x0,0x0,0x0,0x0,0x0
	.DB  0x0,0x3,0x0,0x0,0x0,0x0,0x0,0x0
	.DB  0x0,0x0,0x0,0x0,0x0,0x0,0x0,0x0
	.DB  0x0,0x0,0x0,0x0,0x0,0x0,0x0,0x0
	.DB  0x0,0x0,0x0,0x0,0x0,0x0,0x0,0x0
	.DB  0x0,0x0,0x0,0x0,0x0,0x0,0x0,0x0
	.DB  0x0,0x0,0x0,0x0,0x0,0x0,0x0,0x0
	.DB  0x0,0x0,0x0,0x0,0x0,0x0,0x0,0x0
	.DB  0x0,0x0,0x0,0x0,0x0,0x0,0x0,0x0
	.DB  0x0,0x0,0x0,0x0,0x0,0x0,0x0,0x0
	.DB  0x0,0x0,0x0,0x0,0x0,0x0,0x0,0x0
	.DB  0x0,0x0,0x0,0x0,0x0,0x0,0x0,0x0
	.DB  0x0,0x0,0x0,0x0,0x0,0x0,0x0,0x0
	.DB  0x0,0x0,0x0,0x0,0x0,0x0,0x0,0x0
	.DB  0x0,0x0,0x0,0x0,0x0,0x0,0x0,0x0
	.DB  0x0,0x0,0x0,0x0,0x0,0x0,0x0,0x0
	.DB  0x0,0x0,0x0,0x0,0x0,0x0,0x0,0x0
	.DB  0x0,0x0,0x0,0x0,0x0,0x0,0x0,0x0
	.DB  0x0,0x0,0x0,0x0,0x0,0x0,0x0,0x0
	.DB  0x0,0x0,0x0,0x0,0x0,0x0,0x0,0x0
	.DB  0x0,0x0,0x0,0x0,0x0,0x0,0x0,0x0
	.DB  0x0,0x0,0x0,0x0,0x0,0x0,0x0,0x0
	.DB  0x0,0x0,0x0,0x0,0x0,0x0,0x0,0x0
	.DB  0x0,0x0,0x0,0x0,0x0,0x0,0x0,0x0
	.DB  0x0,0x0,0x0,0x0,0x0,0x0,0x0,0x0
	.DB  0x0,0x0,0x0,0x0,0x0,0x0,0x0,0x0
	.DB  0x0,0x0,0x0,0x0,0x0,0x0,0x0,0x0
	.DB  0x0,0x0,0x0,0x0,0x0,0x0,0x0,0x0
	.DB  0x0,0x0,0x0,0x0,0x0,0x0,0x0,0x0
	.DB  0x0,0x0,0x0,0x0,0x0,0x0,0x0,0x0
	.DB  0x0,0x0,0x0,0x0,0x0,0x0,0x0,0x0
	.DB  0x0,0x0,0x0,0x0,0x0,0x0,0x0,0x0
	.DB  0x0,0x0,0x0,0x0,0x0,0x0,0x0,0x0
	.DB  0x0,0x0,0x0,0x0,0x0,0x0,0x0,0x0
	.DB  0x0,0x0,0x0,0x0,0x0,0x0,0x0,0x0
	.DB  0x0,0x0,0x0,0x0,0x0,0x0,0x0,0x0
	.DB  0x0,0x0,0x0,0x0,0x0,0x0,0x0,0x0
	.DB  0x0,0x0,0x0,0x0,0x0,0x0,0x0,0x0
	.DB  0x0,0x0,0x0,0x0,0x0,0x0,0x0,0x0
	.DB  0x0,0x0,0x0,0x0,0x0,0x0,0x0,0x0
	.DB  0x0,0x0,0x0,0x0,0x0,0x0,0x0,0x0
	.DB  0x0,0x0,0x0,0x0,0x0,0x0,0x0,0x0
	.DB  0x0,0x0,0x0,0x0,0x0,0x0,0x0,0x0
	.DB  0x0,0x0,0x0,0x0,0x0,0x0,0x0,0x0
	.DB  0x0,0x0,0x0,0x0,0x0,0x0,0x0,0x0
	.DB  0x0,0x0,0x0,0x20,0x0,0x0,0x0,0x0
	.DB  0x0,0x0,0x4,0x0,0x0,0x0,0x0,0x0
	.DB  0x0,0x0,0x0,0x0,0x0,0xC,0x8,0x1C
	.DB  0x14,0x0,0x0,0x18,0x10,0x30,0x74,0xF8
	.DB  0xF0,0xD0,0xF0,0xE0,0xE0,0xE0,0xE0,0xC0
	.DB  0x80,0xC0,0xE0,0xE0,0x80,0x80,0x0,0x0
	.DB  0x0,0x40,0x80,0x0,0x0,0x0,0x0,0x0
	.DB  0x0,0x0,0x0,0x0,0x0,0x0,0x0,0x0
	.DB  0x0,0x0,0x0,0x0,0x0,0x0,0x0,0x0
	.DB  0x0,0x0,0x0,0x0,0x0,0x0,0x0,0x0
	.DB  0x0,0x0,0x0,0x0,0x0,0x0,0x0,0x0
	.DB  0x0,0x0,0x0,0x0,0x0,0x0,0x0,0x0
	.DB  0x0,0x0,0x0,0x0,0x0,0x0,0x0,0x0
	.DB  0x0,0x0,0x0,0x0,0x0,0x0,0x0,0x0
	.DB  0x0,0x0,0x0,0x0,0x0,0x0,0x0,0x0
	.DB  0x0,0x0,0x0,0x0,0x0,0x0,0x0,0x0
	.DB  0x0,0x0,0x0,0x0,0x0,0x0,0x0,0x0
	.DB  0x0,0x0,0x0,0x0,0x0,0x0,0x0,0x0
	.DB  0x0,0x0,0x0,0x0,0x0,0x0,0x0,0x0
	.DB  0x0,0x0,0x0,0x0,0x0,0x0,0x0,0x0
	.DB  0x1,0x1,0x1,0x1,0x1,0x1,0x3,0x1
	.DB  0x3,0x3,0x7,0x4,0x1,0xB,0x4,0x2
	.DB  0x7,0xE,0x1F,0x3E,0x10,0x0,0x0,0x1C
	.DB  0x30,0x0,0x0,0x0,0x0,0x0,0x0,0x0
	.DB  0x0,0x0,0x0,0x0,0x0,0x0,0x0,0x0
	.DB  0x0,0x0,0x0,0x0,0x0,0x0,0x0,0x0
	.DB  0x0,0x0,0x0,0x0,0x0,0x0,0x0,0x0
	.DB  0x0,0x0,0x0,0x0,0x0,0x0,0x0,0x0
	.DB  0x0,0x0,0x0,0x0,0x0,0x0,0x0,0x0
	.DB  0x0,0x0,0x0,0x0,0x0,0x0,0x0,0x0
	.DB  0x0,0x0,0x0,0x0,0x0,0x0,0x0,0x0
	.DB  0x0,0x0,0x0,0x0,0x0,0x0,0x0,0x0
	.DB  0x0,0x0,0x0,0x0,0x0,0x0,0x0,0x0
	.DB  0x0,0x0,0x0,0x80,0xE0,0x60,0xE0,0xA0
	.DB  0xB0,0xF0,0xF0,0xF0,0xF0,0x70,0x38,0x38
	.DB  0x38,0xF8,0xFC,0xF8,0xF8,0xF8,0xFC,0x78
	.DB  0x78,0x7C,0xFC,0xFC,0xFC,0xF8,0xF8,0xF8
	.DB  0xF8,0xF8,0xF0,0xF0,0xF0,0xF0,0xF0,0xF0
	.DB  0xE0,0xE0,0xC0,0x80,0x80,0x0,0x0,0x0
	.DB  0x0,0x0,0x0,0x0,0x0,0x0,0x0,0x0
	.DB  0x0,0x0,0x0,0x0,0x0,0x0,0x0,0x0
	.DB  0x0,0x0,0x0,0x0,0x0,0x0,0x0,0x0
	.DB  0x0,0x0,0x0,0x0,0x0,0x0,0x0,0x0
	.DB  0x0,0x0,0x0,0x0,0x0,0x0,0x0,0x0
	.DB  0x0,0x0,0x0,0x0,0x0,0x0,0x0,0x0
	.DB  0x0,0x0,0x0,0x0,0x0,0x0,0x0,0x0
	.DB  0x0,0x0,0x0,0x0,0x0,0x0,0x0,0x0
	.DB  0x0,0x0,0x0,0x0,0x0,0x0,0x0,0x0
	.DB  0x0,0x0,0x0,0x0,0x0,0x0,0x0,0x0
	.DB  0x40,0x30,0x3C,0x7E,0x7F,0x7F,0x1F,0x1F
	.DB  0x37,0x3,0x1,0x0,0x0,0x0,0x0,0x0
	.DB  0x3,0xF,0x7F,0x7F,0xFF,0xFF,0xFF,0x7C
	.DB  0x7C,0x7E,0x7F,0x7F,0x7F,0x7F,0x7F,0x7F
	.DB  0xFF,0xF,0x7,0x0,0x1,0x3,0x7,0x7
	.DB  0xF,0x1C,0x39,0x71,0x60,0xC2,0x84,0x0
	.DB  0x0,0x0,0x0,0x0,0x0,0x0,0x0,0x0
	.DB  0x0,0x0,0x0,0x0,0x0,0x0,0x0,0x0
	.DB  0x0,0x0,0x0,0x0,0x0,0x0,0x0,0x0
	.DB  0x0,0x0,0x0,0x0,0x0,0x0,0x0,0x0
	.DB  0x0,0x0,0x0,0x0,0x0,0x0,0x0,0x0
	.DB  0x0,0x0,0x0,0x0,0x0,0x0,0x0,0x0
	.DB  0x0,0x0,0x0,0x0,0x0,0x0,0x0,0x0
	.DB  0x0,0x0,0x0,0x0,0x0,0x0,0x0,0x0
	.DB  0x0,0x0,0x0,0x0,0x0,0x0,0x0,0x0
	.DB  0x0,0x0,0x0,0x0,0x0,0x0,0x0,0x0
	.DB  0x0,0x0,0x0,0x0,0x1,0x1,0x1,0x0
	.DB  0x0,0x0,0x0,0x0,0x0,0x0,0x0,0x0
	.DB  0x0,0x0,0x0,0x0,0x0,0x0,0x0,0x0
	.DB  0x0,0x0,0x0,0x0,0x0,0x0,0x0,0x0
	.DB  0x0,0x0,0x0,0x0,0x0,0x0,0x0,0x0
	.DB  0x0,0x0,0x0,0x0,0x0,0x0,0x0,0x0
	.DB  0x0,0x0,0x0,0x0,0x0,0x0,0x0,0x0
	.DB  0x0,0x0,0x0,0x0,0x0,0x0,0x0,0x0
	.DB  0x0,0x0,0x0,0x0,0x0,0x0,0x0,0x0
	.DB  0x0,0x0,0x0,0x0,0x0,0x0,0x0,0x0
	.DB  0x0,0x0,0x0,0x0,0x0,0x0,0x0,0x0
	.DB  0x0,0x0,0x0,0x0,0x0,0x0,0x0,0x0
	.DB  0x0,0x0,0x0,0x0,0x0,0x0,0x0,0x0
	.DB  0x0,0x0,0x0,0x0,0x0,0x0,0x0,0x0
	.DB  0x0,0x0,0x0,0x0,0x0,0x0,0x0,0x0
	.DB  0x0,0x0,0x0,0x0,0x0,0x0,0x0,0x0
	.DB  0x0,0x0,0x0,0x0,0x0,0x0,0x0,0x0
	.DB  0x0,0x0,0x0,0x0,0x0,0x0,0x0,0x0
	.DB  0x0,0x0,0x0,0x0,0x0,0x0,0x0,0x0
	.DB  0x0,0x0,0x0,0x0,0x0,0x0,0x0,0x0
	.DB  0x0,0x0,0x0,0x0,0x0,0x0,0x0,0x0
	.DB  0x0,0x0,0x0,0x0,0x0,0x0,0x0,0x0
	.DB  0x0,0x0,0x0,0x0,0x0,0x0,0x0,0x0
	.DB  0x0,0x0,0x0,0x0,0x0,0x0,0x0,0x0
	.DB  0x0,0x0,0x0,0x0,0x0,0x0,0x0,0x0
	.DB  0x0,0x0,0x0,0x0,0x0,0x0,0x0,0x0
	.DB  0x0,0x0,0x0,0x0,0x0,0x0,0x0,0x0
	.DB  0x0,0x0,0x0,0x0,0x0,0x0,0x0,0x0
	.DB  0x0,0x0,0x0,0x0,0x0,0x0,0x0,0x0
	.DB  0x0,0x0,0x0,0x0,0x0,0x0,0x0,0x0
	.DB  0x0,0x0,0x0,0x0,0x0,0x0,0x0,0x0
	.DB  0x0,0x0,0x0,0x0,0x0,0x0,0x0,0x0
	.DB  0x0,0x0,0x0,0x0,0x0,0x0,0x0,0x0
	.DB  0x0,0x0,0x0,0x0,0x0,0x0,0x0,0x0
	.DB  0x0,0x0,0x0,0x0,0x0,0x0,0x0,0x0
	.DB  0x0,0x0,0x0,0x0,0x0,0x0,0x0,0x0
	.DB  0x0,0x0,0x0,0x0,0x0,0x0,0x0,0x0
	.DB  0x0,0x0,0x0,0x0,0x0,0x0,0x0,0x0
	.DB  0x0,0x0,0x0,0x0,0x0,0x0,0x0,0x0
	.DB  0x0,0x0,0x0,0x0,0x0,0x0,0x0,0x0
	.DB  0x0,0x0,0x0,0x0,0x0,0x0,0x0,0x0
	.DB  0x0,0x0,0x0,0x0,0x0,0x0,0x0,0x0
	.DB  0x0,0x0,0x0,0x0,0x0,0x0,0x0,0x0
	.DB  0x0,0x0,0x0,0x0,0x0,0x0,0x0,0x0
	.DB  0x0,0x0,0x0,0x0,0x0,0x0,0x0,0x0
	.DB  0x0,0x0,0x0,0x0,0x0,0x0,0x0,0x0
	.DB  0x0,0x0,0x0,0x0,0x0,0x0,0x0,0x0
	.DB  0x0,0x0,0x0,0x0,0x0,0x0,0x0,0x0
	.DB  0x0,0x0,0x0,0x0,0x0,0x0,0x0,0x0
	.DB  0x0,0x0,0x0,0x0,0x0,0x0,0x0,0x0
	.DB  0x0,0x0,0x0,0x0,0x0,0x0,0x0,0x0
	.DB  0x0,0x0,0x0,0x0,0x0,0x0,0x0,0x0
	.DB  0x0,0x0,0x0,0x0,0x0,0x0,0x0,0x0
	.DB  0x0,0x0,0x0,0x0,0x0,0x0,0x0,0x0
	.DB  0x0,0x0,0x0,0x0,0x0,0x0,0x0,0x0
	.DB  0x0,0x0,0x0,0x0,0x0,0x0,0x0,0x0
	.DB  0x0,0x0,0x0,0x0,0x0,0x0,0x0,0x0
	.DB  0x0,0x0,0x0,0x0,0x0,0x0,0x0,0x0
	.DB  0x0,0x0,0x0,0x0,0x0,0x0,0x0,0x0
	.DB  0x0,0x0,0x0,0x0,0x0,0x0,0x0,0x0
	.DB  0x0,0x0,0x0,0x0,0x0,0x0,0x0,0x0
	.DB  0x0,0x0,0x0,0x0,0x0,0x0,0x0,0x0
	.DB  0x0,0x0,0x0,0x0,0x0,0x0,0x0,0x0
	.DB  0x0,0x0,0x0,0x0,0x0,0x0,0x0,0x0
	.DB  0x0,0x0,0x0,0x0,0x0,0x0,0x0,0x0
	.DB  0x0,0x0,0x0,0x0,0x0,0x0,0x0,0x10
	.DB  0x10,0x0,0x0,0x18,0x10,0x30,0x70,0xF8
	.DB  0xF0,0xD0,0xF0,0xE0,0xE0,0xE0,0xE0,0xC0
	.DB  0x80,0xC0,0xE0,0xE0,0x80,0x80,0x0,0x0
	.DB  0x0,0x40,0x80,0x0,0x0,0x0,0x0,0x0
	.DB  0x0,0x0,0x0,0x0,0x0,0x0,0x0,0x0
	.DB  0x0,0x0,0x0,0x0,0x0,0x0,0x0,0x0
	.DB  0x0,0x0,0x0,0x0,0x0,0x0,0x0,0x0
	.DB  0x0,0x0,0x0,0x0,0x0,0x0,0x0,0x0
	.DB  0x0,0x0,0x0,0x0,0x0,0x0,0x0,0x0
	.DB  0x0,0x0,0x0,0x0,0x0,0x0,0x0,0x0
	.DB  0x0,0x0,0x0,0x0,0x0,0x0,0x0,0x0
	.DB  0x0,0x0,0x0,0x0,0x0,0x0,0x0,0x0
	.DB  0x0,0x0,0x0,0x0,0x0,0x0,0x0,0x0
	.DB  0x0,0x0,0x0,0x0,0x0,0x0,0x0,0x0
	.DB  0x0,0x0,0x0,0x0,0x0,0x0,0x0,0x0
	.DB  0x0,0x0,0x0,0x0,0x0,0x0,0x0,0x0
	.DB  0x0,0x0,0x0,0x0,0x0,0x0,0x0,0x0
	.DB  0x1,0x1,0x1,0x1,0x1,0x1,0x3,0x1
	.DB  0x3,0x3,0x7,0x4,0x1,0xB,0x4,0x2
	.DB  0x7,0xE,0x1F,0x3E,0x10,0x0,0x0,0x1C
	.DB  0x30,0x0,0x0,0x0,0x0,0x0,0x0,0x0
	.DB  0x0,0x0,0x0,0x0,0x0,0x0,0x0,0x0
	.DB  0x0,0x0,0x0,0x0,0x0,0x0,0x0,0x0
	.DB  0x0,0x0,0x0,0x0,0x0,0x0,0x0,0x0
	.DB  0x0,0x0,0x0,0x0,0x0,0x0,0x0,0x0
	.DB  0x0,0x0,0x0,0x0,0x0,0x0,0x0,0x0
	.DB  0x0,0x0,0x0,0x0,0x0,0x0,0x0,0x0
	.DB  0x0,0x0,0x0,0x0,0x0,0x0,0x0,0x0
	.DB  0x0,0x0,0x0,0x0,0x0,0x0,0x0,0x0
	.DB  0x0,0x0,0x0,0x0,0x0,0x0,0x0,0x0
	.DB  0x0,0x0,0x0,0x0,0x0,0x0,0x0,0x0
	.DB  0x0,0x0,0x0,0x0,0x0,0x0,0x0,0x0
	.DB  0x0,0x0,0x0,0x0,0x0,0x0,0x0,0x0
	.DB  0x0,0x0,0x0,0x0,0x0,0x0,0x0,0x0
	.DB  0x0,0x0,0x0,0x0,0x0,0x0,0x0,0x0
	.DB  0x0,0x0,0x0,0x0,0x0,0x0,0x0,0x0
	.DB  0x0,0x0,0x0,0x0,0x0,0x0,0x0,0x0
	.DB  0x0,0x0,0x0,0x0,0x0,0x0,0x0,0x0
	.DB  0x0,0x0,0x0,0x0,0x0,0x0,0x0,0x0
	.DB  0x0,0x0,0x0,0x0,0x0,0x0,0x0,0x0
	.DB  0x0,0x0,0x0,0x0,0x0,0x0,0x0,0x0
	.DB  0x0,0x0,0x0,0x0,0x0,0x0,0x0,0x0
	.DB  0x0,0x0,0x0,0x0,0x0,0x0,0x0,0x0
	.DB  0x0,0x0,0x0,0x0,0x0,0x0,0x0,0x0
	.DB  0x0,0x0,0x0,0x0,0x0,0x0,0x0,0x0
	.DB  0x0,0x0,0x0,0x0,0x0,0x0,0x0,0x0
	.DB  0x0,0x20,0x0,0x40,0x60,0x60,0x0,0x0
	.DB  0x0,0x0,0x0,0x0,0x0,0x0,0x0,0x0
	.DB  0x0,0x0,0x0,0x0,0x80,0x80,0x80,0x0
	.DB  0x0,0x0,0x0,0x0,0x10,0x70,0x70,0x78
	.DB  0xF8,0x8,0x0,0x0,0x0,0x0,0x0,0x0
	.DB  0x0,0x0,0x20,0x60,0x40,0x40,0x0,0x0
	.DB  0x0,0x0,0x0,0x0,0x0,0x0,0x0,0x0
	.DB  0x0,0x0,0x0,0x0,0x0,0x0,0x0,0x0
	.DB  0x0,0x0,0x0,0x0,0x0,0x0,0x0,0x0
	.DB  0x0,0x0,0x0,0x0,0x0,0x0,0x0,0x0
	.DB  0x0,0x0,0x0,0x0,0x0,0x0,0x0,0x0
	.DB  0x0,0x0,0x0,0x0,0x0,0x0,0x0,0x0
	.DB  0x0,0x0,0x0,0x0,0x0,0x0,0x0,0x0
	.DB  0x0,0x0,0x0,0x0,0x0,0x0,0x0,0x0
	.DB  0x0,0x0,0x0,0x0,0x0,0x0,0x0,0x0
	.DB  0x0,0x0,0x0,0x0,0x0,0x0,0x0,0x0
	.DB  0x0,0x0,0x0,0x0,0x0,0x1,0x1,0x0
	.DB  0x0,0x0,0x0,0x0,0x0,0x0,0x0,0x0
	.DB  0x0,0x0,0x0,0x0,0x0,0x0,0x0,0x0
	.DB  0x0,0x0,0x0,0x0,0x0,0x0,0x0,0x0
	.DB  0x0,0x0,0x0,0x0,0x0,0x0,0x0,0x0
	.DB  0x0,0x0,0x0,0x0,0x0,0x0,0x0,0x0
	.DB  0x0,0x0,0x0,0x0,0x0,0x0,0x0,0x0
	.DB  0x0,0x0,0x0,0x0,0x0,0x0,0x0,0x0
	.DB  0x0,0x0,0x0,0x0,0x0,0x0,0x0,0x0
	.DB  0x0,0x0,0x0,0x0,0x0,0x0,0x0,0x0
	.DB  0x0,0x0,0x0,0x0,0x0,0x0,0x0,0x0
	.DB  0x0,0x0,0x0,0x0,0x0,0x0,0x0,0x0
	.DB  0x0,0x0,0x0,0x0,0x0,0x0,0x0,0x0
	.DB  0x0,0x0,0x0,0x0,0x0,0x0,0x0,0x0
	.DB  0x0,0x0,0x0,0x0,0x0,0x0,0x0,0x0
	.DB  0x0,0x0,0x0,0x0,0x0,0x0,0x0,0x0
	.DB  0x0,0x0,0x0,0x0,0x0,0x0,0x0,0x0
	.DB  0x0,0x0,0x0,0x0,0x0,0x0,0x0,0x0
	.DB  0x0,0x0,0x0,0x0,0x0,0x0,0x0,0x0
	.DB  0x0,0x0,0x0,0x0,0x0,0x0,0x0,0x0
	.DB  0x0,0x0,0x0,0x0,0x0,0x0,0x0,0x0
	.DB  0x0,0x0,0x0,0x0,0x0,0x0,0x0,0x0
	.DB  0x0,0x0,0x0,0x0,0x0,0x0,0x0,0x0
	.DB  0x0,0x0,0x0,0x0,0x0,0x0,0x0,0x0
	.DB  0x0,0x0,0x0,0x0,0x0,0x0,0x0,0x0
	.DB  0x0,0x0,0x0,0x0,0x0,0x0,0x0,0x0
	.DB  0x0,0x0,0x0,0x0,0x0,0x0,0x0,0x0
	.DB  0x0,0x0,0x0,0x0,0x0,0x0,0x0,0x0
	.DB  0x0,0x0,0x0,0x0,0x0,0x0,0x0,0x0
	.DB  0x0,0x0,0x0,0x0,0x0,0x0,0x0,0x0
	.DB  0x0,0x0,0x0,0x0,0x0,0x0,0x0,0x0
	.DB  0x0,0x0,0x0,0x0,0x0,0x0,0x0,0x0
	.DB  0x0,0x0,0x0,0x0,0x0,0x0,0x0,0x0
	.DB  0x0,0x0,0x0,0x0,0x0,0x0,0x0,0x0
	.DB  0x0,0x0,0x0,0x0,0x0,0x0,0x0,0x0
	.DB  0x0,0x0,0x0,0x0,0x0,0x0,0x0,0x0
	.DB  0x0,0x0,0x0,0x0,0x0,0x0,0x0,0x0
	.DB  0x0,0x0,0x0,0x0,0x0,0x0,0x0,0x0
	.DB  0x0,0x0,0x0,0x0,0x0,0x0,0x0,0x0
	.DB  0x0,0x0,0x0,0x0,0x0,0x0,0x0,0x0
	.DB  0x0,0x0,0x0,0x0,0x0,0x0,0x0,0x0
	.DB  0x0,0x0,0x0,0x0,0x0,0x0,0x0,0x0
	.DB  0x0,0x0,0x0,0x0,0x0,0x0,0x0,0x0
	.DB  0x0,0x0,0x0,0x0,0x0,0x0,0x0,0x0
	.DB  0x0,0x0,0x0,0x0,0x0,0x0,0x0,0x0
	.DB  0x0,0x0,0x0,0x0,0x0,0x0,0x0,0x0
	.DB  0x0,0x0,0x0,0x0,0x0,0x0,0x0,0x0
	.DB  0x0,0x0,0x0,0x0,0x0,0x0,0x0,0x0
	.DB  0x0,0x0,0x0,0x0,0x0,0x0,0x0,0x0
	.DB  0x0,0x0,0x0,0x0,0x0,0x0,0x0,0x0
	.DB  0x0,0x0,0x0,0x0,0x0,0x0,0x0,0x0
	.DB  0x0,0x0,0x0,0x0,0x0,0x0,0x0,0x0
	.DB  0x0,0x0,0x0,0x0,0x0,0x0,0x0,0x0
	.DB  0x0,0x0,0x0,0x0,0x0,0x0,0x0,0x0
	.DB  0x0,0x0,0x0,0x0,0x0,0x0,0x0,0x0
	.DB  0x0,0x0,0x0,0x0,0x0,0x0,0x0,0x0
	.DB  0x0,0x0,0x0,0x0,0x0,0x0,0x0,0x0
	.DB  0x0,0x0,0x0,0x0,0x0,0x0,0x0,0x0
	.DB  0x0,0x0,0x0,0x0,0x0,0x0,0x0,0x0
	.DB  0x0,0x0,0x0,0x0,0x0,0x0,0x0,0x0
	.DB  0x0,0x0,0x0,0x0,0x0,0x0,0x0,0x0
	.DB  0x0,0x0,0x0,0x0,0x0,0x0,0x0,0x0
	.DB  0x0,0x0,0x0,0x0,0x0,0x0,0x0,0x0
	.DB  0x0,0x0,0x0,0x0,0x0,0x0,0x0,0x0
	.DB  0x0,0x0,0x0,0x0,0x0,0x0,0x0,0x0
	.DB  0x0,0x0,0x0,0x0,0x0,0x0,0x0,0x10
	.DB  0x10,0x0,0x0,0x18,0x10,0x30,0x70,0xF8
	.DB  0xF0,0xD0,0xF0,0xE0,0xE0,0xE0,0xE0,0xC0
	.DB  0x80,0xC0,0xE0,0xE0,0x80,0x80,0x0,0x0
	.DB  0x0,0x40,0x80,0x0,0x0,0x0,0x0,0x0
	.DB  0x0,0x0,0x0,0x0,0x0,0x0,0x0,0x0
	.DB  0x0,0x0,0x0,0x0,0x0,0x0,0x0,0x0
	.DB  0x0,0x0,0x0,0x0,0x0,0x0,0x0,0x0
	.DB  0x0,0x0,0x0,0x0,0x0,0x0,0x0,0x0
	.DB  0x0,0x0,0x0,0x0,0x0,0x0,0x0,0x0
	.DB  0x0,0x0,0x0,0x0,0x0,0x0,0x0,0x0
	.DB  0x0,0x0,0x0,0x0,0x0,0x0,0x0,0x0
	.DB  0x0,0x0,0x0,0x0,0x0,0x0,0x0,0x0
	.DB  0x0,0x0,0x0,0x0,0x0,0x0,0x0,0x0
	.DB  0x0,0x0,0x0,0x0,0x0,0x0,0x0,0x0
	.DB  0x0,0x0,0x0,0x0,0x0,0x0,0x0,0x0
	.DB  0x0,0x0,0x0,0x0,0x0,0x0,0x0,0x0
	.DB  0x0,0x0,0x0,0x0,0x0,0x0,0x0,0x0
	.DB  0x1,0x1,0x1,0x1,0x1,0x1,0x3,0x1
	.DB  0x3,0x3,0x7,0x4,0x1,0xB,0x4,0x2
	.DB  0x7,0xE,0x1F,0x3E,0x10,0x0,0x0,0x1C
	.DB  0x30,0x0,0x0,0x0,0x0,0x0,0x0,0x0
	.DB  0x0,0x0,0x0,0x0,0x0,0x0,0x0,0x0
	.DB  0x0,0x0,0x0,0x0,0x0,0x0,0x0,0x0
	.DB  0x0,0x0,0x0,0x0,0x0,0x0,0x0,0x0
	.DB  0x0,0x0,0x0,0x0,0x0,0x0,0x0,0x0
	.DB  0x0,0x0,0x0,0x0,0x0,0x0,0x0,0x0
	.DB  0x0,0x0,0x0,0x0,0x0,0x0,0x0,0x0
	.DB  0x0,0x0,0x0,0x0,0x0,0x0,0x0,0x0
	.DB  0x0,0x0,0x0,0x0,0x0,0x0,0x0,0x0
	.DB  0x0,0x0,0x0,0x0,0x0,0x0,0x0,0x0
	.DB  0x0,0x0,0x0,0x0,0x0,0x0,0x0,0x0
	.DB  0x0,0x0,0x0,0x0,0x0,0x0,0x0,0x0
	.DB  0x0,0x0,0x0,0x0,0x0,0x0,0x0,0x0
	.DB  0x0,0x0,0x0,0x0,0x0,0x0,0x0,0x0
	.DB  0x0,0x0,0x0,0x0,0x0,0x0,0x0,0x0
	.DB  0x0,0x0,0x0,0x0,0x0,0x0,0x0,0x0
	.DB  0x0,0x0,0x0,0x0,0x0,0x0,0x0,0x0
	.DB  0x0,0x0,0x0,0x0,0x0,0x0,0x0,0x0
	.DB  0x0,0x0,0x0,0x0,0x0,0x0,0x0,0x0
	.DB  0x0,0x0,0x0,0x0,0x0,0x0,0x0,0x0
	.DB  0x0,0x0,0x0,0x0,0x0,0x0,0x0,0x0
	.DB  0x0,0x0,0x0,0x0,0x0,0x0,0x0,0x0
	.DB  0x0,0x0,0x0,0x0,0x0,0x0,0x0,0x0
	.DB  0x0,0x0,0x0,0x0,0x0,0x0,0x0,0x0
	.DB  0x0,0x0,0x0,0x0,0x0,0x0,0x0,0x0
	.DB  0x0,0x0,0x0,0x0,0x0,0x0,0x0,0x0
	.DB  0x0,0x20,0x0,0x40,0x60,0x60,0x0,0x0
	.DB  0x0,0x0,0x0,0x0,0x0,0x0,0x0,0x0
	.DB  0x0,0x0,0x0,0x0,0x80,0x80,0x80,0x0
	.DB  0x0,0x0,0x0,0x0,0x10,0x70,0x70,0x78
	.DB  0xF8,0x8,0x0,0x0,0x0,0x0,0x0,0x0
	.DB  0x0,0x0,0x20,0x60,0x40,0x40,0x0,0x0
	.DB  0x0,0x0,0x0,0x0,0x0,0x0,0x0,0x0
	.DB  0x0,0x0,0x0,0x0,0x0,0x0,0x0,0x0
	.DB  0x0,0x0,0x0,0x0,0x0,0x0,0x0,0x0
	.DB  0x0,0x0,0x0,0x0,0x0,0x0,0x0,0x0
	.DB  0x0,0x0,0x0,0x0,0x0,0x0,0x0,0x0
	.DB  0x0,0x0,0x0,0x0,0x0,0x0,0x0,0x0
	.DB  0x0,0x0,0x0,0x0,0x0,0x0,0x0,0x0
	.DB  0x0,0x0,0x0,0x0,0x0,0x0,0x0,0x0
	.DB  0x0,0x0,0x0,0x0,0x0,0x0,0x0,0x0
	.DB  0x0,0x0,0x0,0x0,0x0,0x0,0x0,0x0
	.DB  0x0,0x0,0x0,0x0,0x0,0x1,0x1,0x0
	.DB  0x0,0x0,0x0,0x0,0x0,0x0,0x0,0x0
	.DB  0x0,0x0,0x0,0x0,0x0,0x0,0x0,0x0
	.DB  0x0,0x0,0x0,0x0,0x0,0x0,0x0,0x0
	.DB  0x0,0x0,0x0,0x0,0x0,0x0,0x0,0x0
	.DB  0x0,0x0,0x0,0x0,0x0,0x0,0x0,0x0
	.DB  0x0,0x0,0x0,0x0,0x0,0x0,0x0,0x0
	.DB  0x0,0x0,0x0,0x0,0x0,0x0,0x0,0x0
	.DB  0x0,0x0,0x0,0x0,0x0,0x0,0x0,0x0
	.DB  0x0,0x0,0x0,0x0,0x0,0x0,0x0,0x0
	.DB  0x0,0x0,0x0,0x0,0x0,0x0,0x0,0x0
	.DB  0x0,0x0,0x0,0x0,0x0,0x0,0x0,0x0
	.DB  0x0,0x0,0x0,0x0,0x0,0x0,0x0,0x0
	.DB  0x0,0x0,0x0,0x0,0x0,0x0,0x0,0x0
	.DB  0x0,0x0,0x0,0x0,0x0,0x0,0x0,0x0
	.DB  0x0,0x0,0x0,0x0,0x0,0x0,0x0,0x0
	.DB  0x0,0x0,0x0,0x0,0x0,0x0,0x0,0x0
	.DB  0x0,0x0,0x0,0x0,0x0,0x0,0x0,0x0
	.DB  0x0,0x0,0x0,0x0,0x0,0x0,0x0,0x0
	.DB  0x0,0x0,0x0,0x0,0x0,0x0,0x0,0x0
	.DB  0x0,0x0,0x0,0x0,0x0,0x0,0x0,0x0
	.DB  0x0,0x0,0x0,0x0,0x0,0x0,0x0,0x0
	.DB  0x0,0x0,0x0,0x0,0x0,0x0,0x0,0x0
	.DB  0x0,0x0,0x0,0x0,0x0,0x0,0x0,0x0
	.DB  0x0,0x0,0x0,0x0,0x0,0x0,0x0,0x0
	.DB  0x0,0x0,0x0,0x0,0x0,0x0,0x0,0x0
	.DB  0x0,0x0,0x0,0x0,0x0,0x0,0x0,0x0
	.DB  0x0,0x0,0x0,0x0,0x0,0x0,0x0,0x0
	.DB  0x0,0x0,0x0,0x0,0x0,0x0,0x0,0x0
	.DB  0x0,0x0,0x0,0x0,0x0,0x0,0x0,0x0
	.DB  0x0,0x0,0x0,0x0,0x0,0x0,0x0,0x0
	.DB  0x0,0x0,0x0,0x0,0x0,0x0,0x0,0x0
	.DB  0x0,0x0,0x0,0x0,0x0,0x0,0x0,0x0
	.DB  0x0,0x0,0x0,0x0,0x0,0x0,0x0,0x0
	.DB  0x0,0x0,0x0,0x0,0x0,0x0,0x0,0x0
	.DB  0x0,0x0,0x0,0x0,0x0,0x0,0x0,0x0
	.DB  0x0,0x0,0x0,0x0,0x0,0x0,0x0,0x0
	.DB  0x0,0x0,0x0,0x0,0x0,0x0,0x0,0x0
	.DB  0x0,0x0,0x0,0x0,0x0,0x0,0x0,0x0
	.DB  0x0,0x0,0x0,0x0,0x0,0x0,0x0,0x0
	.DB  0x0,0x0,0x0,0x0,0x0,0x0,0x0,0x0
	.DB  0x0,0x0,0x0,0x0,0x0,0x0,0x0,0x0
	.DB  0x0,0x0,0x0,0x0,0x0,0x0,0x0,0x0
	.DB  0x0,0x0,0x0,0x0,0x0,0x0,0x0,0x0
	.DB  0x0,0x0,0x0,0x0,0x0,0x0,0x0,0x0
	.DB  0x0,0x0,0x0,0x0,0x0,0x0,0x0,0x0

_0x3:
	.DB  0xC1
_0xC7:
	.DB  0xC3,0xD3,0xC7,0xE3,0xC9,0x20,0xD5,0xE1
	.DB  0xC7,0xCD,0x20,0xC7,0xE1,0xCF,0xED,0xE4
	.DB  0x0,0xE3,0xD1,0xCD,0xC8,0xC7,0x0,0x4F
	.DB  0x53,0x41,0x4D,0x41,0x20,0x53,0x41,0x4C
	.DB  0x41,0x48,0x0,0x57,0x45,0x4C,0x43,0x4F
	.DB  0x4D,0x45,0x0
_0x2000000:
	.DB  0x2D,0x4E,0x41,0x4E,0x0
_0x2020060:
	.DB  0x1
_0x2020000:
	.DB  0x2D,0x4E,0x41,0x4E,0x0,0x49,0x4E,0x46
	.DB  0x0

__GLOBAL_INI_TBL:
	.DW  0x01
	.DW  _prevLet_G000
	.DW  _0x3*2

	.DW  0x01
	.DW  __seed_G101
	.DW  _0x2020060*2

_0xFFFFFFFF:
	.DW  0

__RESET:
	CLI
	CLR  R30
	OUT  EECR,R30

;INTERRUPT VECTORS ARE PLACED
;AT THE START OF FLASH
	LDI  R31,1
	OUT  GICR,R31
	OUT  GICR,R30
	OUT  MCUCR,R30

;DISABLE WATCHDOG
	LDI  R31,0x18
	OUT  WDTCR,R31
	OUT  WDTCR,R30

;CLEAR R2-R14
	LDI  R24,(14-2)+1
	LDI  R26,2
	CLR  R27
__CLEAR_REG:
	ST   X+,R30
	DEC  R24
	BRNE __CLEAR_REG

;CLEAR SRAM
	LDI  R24,LOW(__CLEAR_SRAM_SIZE)
	LDI  R25,HIGH(__CLEAR_SRAM_SIZE)
	LDI  R26,__SRAM_START
__CLEAR_SRAM:
	ST   X+,R30
	SBIW R24,1
	BRNE __CLEAR_SRAM

;GLOBAL VARIABLES INITIALIZATION
	LDI  R30,LOW(__GLOBAL_INI_TBL*2)
	LDI  R31,HIGH(__GLOBAL_INI_TBL*2)
__GLOBAL_INI_NEXT:
	LPM  R24,Z+
	LPM  R25,Z+
	SBIW R24,0
	BREQ __GLOBAL_INI_END
	LPM  R26,Z+
	LPM  R27,Z+
	LPM  R0,Z+
	LPM  R1,Z+
	MOVW R22,R30
	MOVW R30,R0
__GLOBAL_INI_LOOP:
	LPM  R0,Z+
	ST   X+,R0
	SBIW R24,1
	BRNE __GLOBAL_INI_LOOP
	MOVW R30,R22
	RJMP __GLOBAL_INI_NEXT
__GLOBAL_INI_END:

;HARDWARE STACK POINTER INITIALIZATION
	LDI  R30,LOW(__SRAM_END-__HEAP_SIZE)
	OUT  SPL,R30
	LDI  R30,HIGH(__SRAM_END-__HEAP_SIZE)
	OUT  SPH,R30

;DATA STACK POINTER INITIALIZATION
	LDI  R28,LOW(__SRAM_START+__DSTACK_SIZE)
	LDI  R29,HIGH(__SRAM_START+__DSTACK_SIZE)

	JMP  _main

	.ESEG
	.ORG 0

	.DSEG
	.ORG 0x260

	.CSEG
;/*****************************************************
;This program was produced by the
;CodeWizardAVR V1.24.4 Standard
;Automatic Program Generator
; Copyright 1998-2004 Pavel Haiduc, HP InfoTech s.r.l.
;http://www.hpinfotech.com
;e-mail:office@hpinfotech.com
;
;Project :
;Version :
;Date    : 7/6/2008
;Author  : Osama
;Company : OSAMA
;Comments:
;
;
;Chip type           : ATmega32L
;Program type        : Application
;Clock frequency     : 8.000000 MHz
;Memory model        : Small
;External SRAM size  : 0
;Data Stack size     : 512
;
;All copy rights are reserved to Osama's Lab - Refer to "License.txt"
;*****************************************************/
;#include <mega32.h>
	#ifndef __SLEEP_DEFINED__
	#define __SLEEP_DEFINED__
	.EQU __se_bit=0x80
	.EQU __sm_mask=0x70
	.EQU __sm_powerdown=0x20
	.EQU __sm_powersave=0x30
	.EQU __sm_standby=0x60
	.EQU __sm_ext_standby=0x70
	.EQU __sm_adc_noise_red=0x10
	.SET power_ctrl_reg=mcucr
	#endif
;#include <delay.h>
;#include <stdio.h>
;#include "Includes/graph.h"
;#include "Includes/GLCD.h"

	.DSEG

	.CSEG
_trigger:
	SBI  0x15,1
	__DELAY_USB 8
	CBI  0x15,1
	__DELAY_USB 8
	RET
_glcd_on:
	CBI  0x15,2
	CBI  0x15,3
	CBI  0x12,7
	CBI  0x15,0
	LDI  R30,LOW(63)
	RJMP _0x20A0006
_glcd_off:
	CBI  0x15,2
	CBI  0x15,3
	CBI  0x12,7
	CBI  0x15,0
	LDI  R30,LOW(62)
_0x20A0006:
	OUT  0x1B,R30
	RCALL _trigger
	RET
_set_start_line:
;	line -> Y+0
	CBI  0x12,7
	CBI  0x15,0
	CBI  0x15,2
	CBI  0x15,3
	LD   R30,Y
	ORI  R30,LOW(0xC0)
	OUT  0x1B,R30
	RJMP _0x20A0005
_goto_col:
	ST   -Y,R17
;	x -> Y+1
;	pattern -> R17
	CBI  0x12,7
	CBI  0x15,0
	LDD  R26,Y+1
	LDD  R27,Y+1+1
	CPI  R26,LOW(0x40)
	LDI  R30,HIGH(0x40)
	CPC  R27,R30
	BRSH _0x24
	CBI  0x15,2
	SBI  0x15,3
	LDD  R17,Y+1
	RJMP _0x29
_0x24:
	CBI  0x15,3
	SBI  0x15,2
	LDD  R30,Y+1
	LDD  R31,Y+1+1
	SUBI R30,LOW(64)
	SBCI R31,HIGH(64)
	MOV  R17,R30
_0x29:
	MOV  R30,R17
	ORI  R30,0x40
	ANDI R30,0x7F
	MOV  R17,R30
	OUT  0x1B,R17
	RCALL _trigger
	LDD  R17,Y+0
	RJMP _0x20A0004
_goto_row:
	ST   -Y,R17
;	y -> Y+1
;	pattern -> R17
	CBI  0x12,7
	CBI  0x15,0
	LDD  R30,Y+1
	ORI  R30,LOW(0xB8)
	ANDI R30,0xBF
	MOV  R17,R30
	OUT  0x1B,R17
	RCALL _trigger
	LDD  R17,Y+0
	RJMP _0x20A0004
_goto_xy:
;	x -> Y+2
;	y -> Y+0
	LDD  R30,Y+2
	LDD  R31,Y+2+1
	CALL SUBOPT_0x0
	LD   R30,Y
	LDD  R31,Y+1
	CALL SUBOPT_0x1
	ADIW R28,4
	RET
_glcd_write:
;	b -> Y+0
	SBI  0x12,7
	CBI  0x15,0
	LD   R30,Y
	OUT  0x1B,R30
	__DELAY_USB 3
_0x20A0005:
	RCALL _trigger
	ADIW R28,1
	RET
_glcd_clrln:
	ST   -Y,R17
	ST   -Y,R16
;	ln -> Y+2
;	i -> R16,R17
	CALL SUBOPT_0x2
	CALL SUBOPT_0x3
	CALL SUBOPT_0x4
	CALL SUBOPT_0x3
	CBI  0x15,2
	__GETWRN 16,17,0
_0x39:
	__CPWRN 16,17,65
	BRGE _0x3A
	LDI  R30,LOW(0)
	ST   -Y,R30
	RCALL _glcd_write
	__ADDWRN 16,17,1
	RJMP _0x39
_0x3A:
	LDD  R17,Y+1
	LDD  R16,Y+0
_0x20A0004:
	ADIW R28,3
	RET
_glcd_clear:
	ST   -Y,R17
	ST   -Y,R16
;	i -> R16,R17
	__GETWRN 16,17,0
_0x3C:
	__CPWRN 16,17,8
	BRGE _0x3D
	ST   -Y,R16
	RCALL _glcd_clrln
	__ADDWRN 16,17,1
	RJMP _0x3C
_0x3D:
	LD   R16,Y+
	LD   R17,Y+
	RET
;	status -> R17
_glcd_read:
	ST   -Y,R17
;	column -> Y+1
;	read_data -> R17
	LDI  R17,0
	LDI  R30,LOW(0)
	OUT  0x1A,R30
	SBI  0x15,0
	SBI  0x12,7
	LDD  R26,Y+1
	LDI  R30,LOW(63)
	CALL __GTB12U
	CPI  R30,0
	BRNE _0x50
	CBI  0x15,2
	RJMP _0x51
_0x50:
	SBI  0x15,2
_0x51:
	SBIS 0x15,2
	RJMP _0x52
	CBI  0x15,3
	RJMP _0x53
_0x52:
	SBI  0x15,3
_0x53:
	__DELAY_USB 3
	SBI  0x15,1
	__DELAY_USB 3
	CBI  0x15,1
	__DELAY_USB 53
	SBI  0x15,1
	__DELAY_USB 3
	IN   R17,25
	CBI  0x15,1
	__DELAY_USB 3
	LDI  R30,LOW(255)
	OUT  0x1A,R30
	MOV  R30,R17
	LDD  R17,Y+0
	ADIW R28,2
	RET
_point_at:
	ST   -Y,R17
;	x -> Y+4
;	y -> Y+2
;	color -> Y+1
;	pattern -> R17
	CALL SUBOPT_0x5
	LDD  R30,Y+1
	CPI  R30,0
	BRNE _0x5F
	CALL SUBOPT_0x6
	COM  R30
	PUSH R30
	LDD  R30,Y+4
	ST   -Y,R30
	RCALL _glcd_read
	POP  R26
	AND  R30,R26
	RJMP _0xD5
_0x5F:
	CPI  R30,LOW(0x1)
	BRNE _0x5E
	CALL SUBOPT_0x6
	PUSH R30
	LDD  R30,Y+4
	ST   -Y,R30
	RCALL _glcd_read
	POP  R26
	OR   R30,R26
_0xD5:
	MOV  R17,R30
_0x5E:
	CALL SUBOPT_0x5
	ST   -Y,R17
	RCALL _glcd_write
	LDD  R17,Y+0
	ADIW R28,6
	RET
_h_line:
	ST   -Y,R17
	ST   -Y,R16
;	x -> Y+7
;	y -> Y+5
;	l -> Y+4
;	s -> Y+3
;	c -> Y+2
;	i -> R16,R17
	__GETWRS 16,17,7
_0x62:
	LDD  R30,Y+7
	LDD  R31,Y+7+1
	LDD  R26,Y+4
	LDI  R27,0
	ADD  R30,R26
	ADC  R31,R27
	CP   R16,R30
	CPC  R17,R31
	BRSH _0x63
	ST   -Y,R17
	ST   -Y,R16
	LDD  R30,Y+7
	LDD  R31,Y+7+1
	CALL SUBOPT_0x7
	RCALL _point_at
	CALL SUBOPT_0x8
	RJMP _0x62
_0x63:
	LDD  R17,Y+1
	LDD  R16,Y+0
	ADIW R28,9
	RET
_v_line:
	ST   -Y,R17
	ST   -Y,R16
;	x -> Y+8
;	y -> Y+6
;	l -> Y+4
;	s -> Y+3
;	c -> Y+2
;	i -> R16,R17
	__GETWRS 16,17,6
_0x65:
	LDD  R30,Y+4
	LDD  R31,Y+4+1
	LDD  R26,Y+6
	LDD  R27,Y+6+1
	ADD  R30,R26
	ADC  R31,R27
	CP   R16,R30
	CPC  R17,R31
	BRSH _0x66
	CALL SUBOPT_0x9
	ST   -Y,R17
	ST   -Y,R16
	LDD  R30,Y+6
	ST   -Y,R30
	RCALL _point_at
	CALL SUBOPT_0x8
	RJMP _0x65
_0x66:
	LDD  R17,Y+1
	LDD  R16,Y+0
	RJMP _0x20A0003
_line:
	SBIW R28,8
	CALL __SAVELOCR6
;	x1 -> Y+22
;	y1 -> Y+20
;	x2 -> Y+18
;	y2 -> Y+16
;	s -> Y+15
;	c -> Y+14
;	i -> R17
;	y01 -> R16
;	temp -> R19
;	a -> Y+10
;	b -> Y+6
;	y00 -> R18
;	y010 -> R21
	CALL SUBOPT_0xA
	BRNE _0x67
	CALL SUBOPT_0xB
	CALL SUBOPT_0xB
	CALL SUBOPT_0xC
	LDD  R26,Y+24
	LDD  R27,Y+24+1
	LDD  R30,Y+20
	LDD  R31,Y+20+1
	CALL SUBOPT_0xD
	ADIW R30,1
	CALL SUBOPT_0xE
	RJMP _0x68
_0x67:
	LDD  R30,Y+16
	LDD  R31,Y+16+1
	LDD  R26,Y+20
	LDD  R27,Y+20+1
	CP   R30,R26
	CPC  R31,R27
	BRNE _0x69
	CALL SUBOPT_0xB
	CALL SUBOPT_0xC
	CALL SUBOPT_0xB
	LDD  R26,Y+26
	LDD  R27,Y+26+1
	LDD  R30,Y+22
	LDD  R31,Y+22+1
	CALL SUBOPT_0xD
	SUBI R30,-LOW(1)
	ST   -Y,R30
	LDD  R30,Y+20
	CALL SUBOPT_0xF
	RJMP _0x6A
_0x69:
	CALL SUBOPT_0xA
	BRSH _0x6B
	LDD  R19,Y+22
	LDD  R30,Y+18
	LDD  R31,Y+18+1
	STD  Y+22,R30
	STD  Y+22+1,R31
	CALL SUBOPT_0x10
	STD  Y+18,R30
	STD  Y+18+1,R31
	LDD  R19,Y+20
	LDD  R30,Y+16
	LDD  R31,Y+16+1
	STD  Y+20,R30
	STD  Y+20+1,R31
	CALL SUBOPT_0x10
	STD  Y+16,R30
	STD  Y+16+1,R31
_0x6B:
	LDD  R26,Y+20
	LDD  R27,Y+20+1
	LDD  R30,Y+16
	LDD  R31,Y+16+1
	SUB  R30,R26
	SBC  R31,R27
	CALL __CWD1
	CALL __CDF1
	PUSH R23
	PUSH R22
	PUSH R31
	PUSH R30
	LDD  R26,Y+22
	LDD  R27,Y+22+1
	LDD  R30,Y+18
	LDD  R31,Y+18+1
	SUB  R30,R26
	SBC  R31,R27
	POP  R26
	POP  R27
	POP  R24
	POP  R25
	CALL SUBOPT_0x11
	CALL __DIVF21
	__PUTD1S 10
	CALL SUBOPT_0x12
	LDD  R26,Y+20
	LDD  R27,Y+20+1
	CLR  R24
	CLR  R25
	CALL __CDF2
	CALL __SWAPD12
	CALL __SUBF12
	__PUTD1S 6
	CALL SUBOPT_0x12
	CALL SUBOPT_0x13
	CALL __CFD1U
	MOV  R18,R30
	MOV  R21,R18
	LDD  R30,Y+22
	SUBI R30,-LOW(1)
	MOV  R17,R30
_0x6D:
	CALL SUBOPT_0x14
	BRSH PC+3
	JMP _0x6E
	MOV  R30,R17
	__GETD2S 10
	CLR  R31
	CLR  R22
	CLR  R23
	CALL __CDF1
	CALL __MULF12
	CALL SUBOPT_0x13
	__GETD2N 0x3F000000
	CALL __ADDF12
	CALL __CFD1U
	MOV  R16,R30
	MOV  R26,R16
	SUB  R26,R21
	CPI  R26,LOW(0x2)
	BRLT _0x6F
	CALL SUBOPT_0x15
	MOV  R30,R21
	CALL SUBOPT_0x16
	MOV  R26,R16
	SUB  R26,R21
	RJMP _0xD6
_0x6F:
	MOV  R26,R21
	SUB  R26,R16
	CPI  R26,LOW(0x2)
	BRLT _0x71
	CALL SUBOPT_0x15
	MOV  R30,R16
	CALL SUBOPT_0x16
	MOV  R26,R21
	SUB  R26,R16
_0xD6:
	LDI  R30,LOW(1)
	CALL SUBOPT_0x17
	CALL SUBOPT_0xE
_0x71:
	CALL SUBOPT_0x14
	BRNE _0x73
	CP   R16,R18
	BREQ _0x74
_0x73:
	RJMP _0x72
_0x74:
	CALL SUBOPT_0xB
	CALL SUBOPT_0x18
	LDD  R26,Y+26
	LDD  R27,Y+26+1
	LDD  R30,Y+22
	LDD  R31,Y+22+1
	SUB  R30,R26
	SBC  R31,R27
	ST   -Y,R30
	LDI  R30,LOW(0)
	CALL SUBOPT_0xF
_0x72:
	MOV  R21,R16
	CP   R16,R18
	BREQ _0x6C
	CALL SUBOPT_0xB
	MOV  R30,R18
	CALL SUBOPT_0x19
	LDD  R30,Y+26
	LDD  R31,Y+26+1
	CALL SUBOPT_0x1A
	SUB  R26,R30
	SBC  R27,R31
	ST   -Y,R26
	LDI  R30,LOW(0)
	CALL SUBOPT_0xF
	CALL SUBOPT_0x1B
	STD  Y+22,R30
	STD  Y+22+1,R31
	MOV  R18,R16
_0x6C:
	SUBI R17,-1
	RJMP _0x6D
_0x6E:
	CALL SUBOPT_0x1C
	CALL SUBOPT_0x1C
	LDD  R30,Y+18
	ST   -Y,R30
	RCALL _point_at
_0x6A:
_0x68:
	CALL __LOADLOCR6
	ADIW R28,24
	RET
_rectangle:
;	x1 -> Y+8
;	y1 -> Y+6
;	x2 -> Y+4
;	y2 -> Y+2
;	s -> Y+1
;	c -> Y+0
	CALL SUBOPT_0x9
	CALL SUBOPT_0x9
	CALL SUBOPT_0x1D
	LDD  R30,Y+4
	LDD  R31,Y+4+1
	ST   -Y,R31
	ST   -Y,R30
	CALL SUBOPT_0x1D
	CALL SUBOPT_0x9
	CALL SUBOPT_0x1E
	CALL SUBOPT_0x1F
	LDD  R30,Y+4
	LDD  R31,Y+4+1
	CALL SUBOPT_0x20
	CALL SUBOPT_0x1E
	ADIW R30,1
	CALL SUBOPT_0x1F
_0x20A0003:
	ADIW R28,10
	RET
_cuboid:
;	x11 -> Y+16
;	y11 -> Y+14
;	x12 -> Y+12
;	y12 -> Y+10
;	x21 -> Y+8
;	y21 -> Y+6
;	x22 -> Y+4
;	y22 -> Y+2
;	s -> Y+1
;	c -> Y+0
	CALL SUBOPT_0x21
	CALL SUBOPT_0x21
	CALL SUBOPT_0x21
	CALL SUBOPT_0x21
	CALL SUBOPT_0x22
	CALL SUBOPT_0x9
	CALL SUBOPT_0x9
	CALL SUBOPT_0x9
	CALL SUBOPT_0x9
	CALL SUBOPT_0x22
	CALL SUBOPT_0x21
	CALL SUBOPT_0x21
	CALL SUBOPT_0x23
	CALL SUBOPT_0x23
	CALL SUBOPT_0x24
	CALL SUBOPT_0x23
	LDD  R30,Y+16
	LDD  R31,Y+16+1
	CALL SUBOPT_0x20
	CALL SUBOPT_0x23
	CALL SUBOPT_0x24
	CALL SUBOPT_0x21
	CALL SUBOPT_0x23
	LDD  R30,Y+12
	LDD  R31,Y+12+1
	CALL SUBOPT_0x20
	CALL SUBOPT_0x24
	CALL SUBOPT_0x23
	LDD  R30,Y+12
	LDD  R31,Y+12+1
	CALL SUBOPT_0x20
	CALL SUBOPT_0x9
	CALL SUBOPT_0x24
	ADIW R28,18
	RET
;	x1 -> Y+9
;	y1 -> Y+7
;	x2 -> Y+5
;	y2 -> Y+3
;	l -> Y+2
;	s -> Y+1
;	c -> Y+0
_v_parallelogram:
;	x1 -> Y+9
;	y1 -> Y+7
;	x2 -> Y+5
;	y2 -> Y+3
;	l -> Y+2
;	s -> Y+1
;	c -> Y+0
	CALL SUBOPT_0x25
	CALL SUBOPT_0x25
	LDD  R30,Y+6
	CALL SUBOPT_0x19
	CALL SUBOPT_0x26
	LDD  R30,Y+5
	LDD  R31,Y+5+1
	ST   -Y,R31
	ST   -Y,R30
	LDD  R30,Y+4
	CALL SUBOPT_0x27
	CALL SUBOPT_0x28
	LDD  R30,Y+6
	CALL SUBOPT_0x19
	CALL SUBOPT_0x26
	CALL SUBOPT_0x25
	CALL SUBOPT_0x25
	CALL SUBOPT_0x25
	CALL SUBOPT_0x29
	CALL SUBOPT_0x24
	CALL SUBOPT_0x25
	LDD  R30,Y+4
	CALL SUBOPT_0x2A
	CALL SUBOPT_0x2B
	CALL SUBOPT_0x25
	CALL SUBOPT_0x25
	CALL SUBOPT_0x24
	RJMP _0x20A0001
;	x11 -> Y+18
;	y11 -> Y+16
;	x12 -> Y+14
;	y12 -> Y+12
;	l1 -> Y+11
;	x21 -> Y+9
;	y21 -> Y+7
;	x22 -> Y+5
;	y22 -> Y+3
;	l2 -> Y+2
;	s -> Y+1
;	c -> Y+0
_v_parallelepiped:
;	x11 -> Y+18
;	y11 -> Y+16
;	x12 -> Y+14
;	y12 -> Y+12
;	l1 -> Y+11
;	x21 -> Y+9
;	y21 -> Y+7
;	x22 -> Y+5
;	y22 -> Y+3
;	l2 -> Y+2
;	s -> Y+1
;	c -> Y+0
	CALL SUBOPT_0x1C
	CALL SUBOPT_0x1C
	CALL SUBOPT_0x1C
	CALL SUBOPT_0x1C
	LDD  R30,Y+19
	CALL SUBOPT_0x2C
	CALL SUBOPT_0x25
	CALL SUBOPT_0x25
	CALL SUBOPT_0x25
	CALL SUBOPT_0x25
	LDD  R30,Y+10
	CALL SUBOPT_0x2C
	CALL SUBOPT_0x1C
	CALL SUBOPT_0x1C
	CALL SUBOPT_0x2D
	CALL SUBOPT_0x2D
	CALL SUBOPT_0x24
	CALL SUBOPT_0x2E
	CALL SUBOPT_0x2E
	CALL SUBOPT_0x25
	CALL SUBOPT_0x25
	CALL SUBOPT_0x24
	CALL SUBOPT_0x1C
	LDD  R30,Y+13
	LDD  R26,Y+18
	LDD  R27,Y+18+1
	LDI  R31,0
	CALL SUBOPT_0x2B
	CALL SUBOPT_0x2D
	LDD  R30,Y+8
	LDD  R26,Y+13
	LDD  R27,Y+13+1
	LDI  R31,0
	CALL SUBOPT_0x2B
	CALL SUBOPT_0x24
	CALL SUBOPT_0x2E
	LDD  R30,Y+13
	LDD  R26,Y+14
	LDD  R27,Y+14+1
	LDI  R31,0
	CALL SUBOPT_0x28
	CALL SUBOPT_0x25
	CALL SUBOPT_0x29
	CALL SUBOPT_0x24
	ADIW R28,20
	RET
_circle:
	CALL __SAVELOCR4
;	x0 -> Y+10
;	y0 -> Y+8
;	r -> Y+6
;	s -> Y+5
;	c -> Y+4
;	i -> R17
;	y -> R16
;	y00 -> R19
	LDD  R19,Y+6
	LDI  R17,LOW(0)
_0x77:
	LDD  R30,Y+6
	LDD  R31,Y+6+1
	CALL SUBOPT_0x1A
	CP   R26,R30
	CPC  R27,R31
	BRLO PC+3
	JMP _0x78
	LDD  R30,Y+6
	LDD  R31,Y+6+1
	LDD  R26,Y+6
	LDD  R27,Y+6+1
	CALL __MULW12U
	MOVW R22,R30
	MOV  R26,R17
	CLR  R27
	CALL SUBOPT_0x1B
	CALL __MULW12
	MOVW R26,R22
	CALL SUBOPT_0x2F
	CALL _isqrt
	MOV  R16,R30
	CALL SUBOPT_0x30
	CALL SUBOPT_0x31
	CALL SUBOPT_0x30
	CALL SUBOPT_0x2F
	LDD  R30,Y+8
	ST   -Y,R30
	RCALL _point_at
	CALL SUBOPT_0x32
	CALL SUBOPT_0x33
	CALL SUBOPT_0x31
	CALL SUBOPT_0x32
	CALL SUBOPT_0x33
	CALL SUBOPT_0x2F
	LDD  R30,Y+8
	ST   -Y,R30
	RCALL _point_at
	CALL SUBOPT_0x34
	CALL _abs
	SBIW R30,2
	BRLO _0x79
	CALL SUBOPT_0x35
	CALL SUBOPT_0x36
	CALL SUBOPT_0x37
	CALL SUBOPT_0x38
	CALL SUBOPT_0x35
	CALL SUBOPT_0x36
	CALL SUBOPT_0x39
	CALL SUBOPT_0x34
	CALL SUBOPT_0x38
	CALL SUBOPT_0x3A
	CALL SUBOPT_0x10
	CALL SUBOPT_0x36
	CALL SUBOPT_0x37
	CALL SUBOPT_0x38
	CALL SUBOPT_0x3A
	CALL SUBOPT_0x10
	CALL SUBOPT_0x36
	CALL SUBOPT_0x39
	CALL SUBOPT_0x34
	CALL SUBOPT_0x38
_0x79:
	MOV  R19,R16
	SUBI R17,-1
	RJMP _0x77
_0x78:
	CALL SUBOPT_0x3B
	LDD  R30,Y+10
	LDD  R31,Y+10+1
	CALL SUBOPT_0x36
	CALL SUBOPT_0x3C
	CALL SUBOPT_0x3B
	CALL SUBOPT_0x33
	CALL SUBOPT_0x2F
	CALL SUBOPT_0x18
	CALL SUBOPT_0x3C
	CALL SUBOPT_0x3A
	LDD  R30,Y+10
	LDD  R31,Y+10+1
	CALL SUBOPT_0x36
	CALL SUBOPT_0x3C
	CALL SUBOPT_0x3A
	CALL SUBOPT_0x33
	CALL SUBOPT_0x2F
	CALL SUBOPT_0x18
	CALL SUBOPT_0x3C
	CALL __LOADLOCR4
	ADIW R28,12
	RET
_putIt:
	ST   -Y,R17
;	c -> Y+5
;	x -> Y+3
;	y -> Y+1
;	i -> R17
	LDD  R30,Y+3
	LDD  R31,Y+3+1
	CALL SUBOPT_0x0
	LDD  R30,Y+1
	LDD  R31,Y+1+1
	CALL SUBOPT_0x1
	LDI  R17,LOW(0)
_0x7B:
	CPI  R17,8
	BRSH _0x7C
	LDD  R30,Y+5
	LDD  R31,Y+5+1
	CALL __LSLW3
	MOVW R26,R30
	CALL SUBOPT_0x1B
	ADD  R30,R26
	ADC  R31,R27
	SUBI R30,LOW(-_font*2)
	SBCI R31,HIGH(-_font*2)
	LPM  R30,Z
	ST   -Y,R30
	RCALL _glcd_write
	SUBI R17,-1
	RJMP _0x7B
_0x7C:
	LDD  R17,Y+0
	RJMP _0x20A0002
_enlarge:
	CALL __SAVELOCR4
;	*large -> Y+6
;	c -> Y+5
;	size -> Y+4
;	i -> R17
;	j -> R16
;	temp -> R19
;	k -> R18
	LDI  R18,0
	LDI  R17,LOW(0)
_0x7E:
	LDD  R30,Y+4
	CP   R17,R30
	BRSH _0x7F
	LDI  R16,LOW(0)
_0x81:
	CPI  R16,8
	BRSH _0x82
	CALL SUBOPT_0x3D
	LSR  R30
	ST   X,R30
	LDD  R30,Y+5
	ANDI R30,LOW(0x1)
	MOV  R19,R30
	CPI  R19,0
	BREQ _0x83
	CALL SUBOPT_0x3D
	ORI  R30,0x80
	ST   X,R30
_0x83:
	SUBI R18,-LOW(1)
	LDD  R30,Y+4
	CP   R30,R18
	BRNE _0x84
	LDD  R30,Y+5
	LSR  R30
	STD  Y+5,R30
	LDI  R18,LOW(0)
_0x84:
	SUBI R16,-1
	RJMP _0x81
_0x82:
	SUBI R17,-1
	RJMP _0x7E
_0x7F:
	CALL __LOADLOCR4
	ADIW R28,8
	RET
_putItSz:
	SBIW R28,63
	SBIW R28,1
	CALL __SAVELOCR4
;	c -> Y+73
;	x -> Y+71
;	y -> Y+69
;	sz -> Y+68
;	i -> R17
;	j -> R16
;	k -> R19
;	large -> Y+4
	CALL SUBOPT_0x3E
	CALL SUBOPT_0x0
	__GETW1SX 69
	CALL SUBOPT_0x1
	LDI  R17,LOW(0)
_0x86:
	CPI  R17,8
	BRSH _0x87
	CALL SUBOPT_0x1B
	MOVW R22,R30
	CALL __LSLW3
	MOVW R26,R28
	ADIW R26,4
	ADD  R30,R26
	ADC  R31,R27
	ST   -Y,R31
	ST   -Y,R30
	__GETW1SX 75
	CALL __LSLW3
	ADD  R30,R22
	ADC  R31,R23
	SUBI R30,LOW(-_font*2)
	SBCI R31,HIGH(-_font*2)
	LPM  R30,Z
	ST   -Y,R30
	__GETB1SX 71
	ST   -Y,R30
	RCALL _enlarge
	SUBI R17,-1
	RJMP _0x86
_0x87:
	LDI  R16,LOW(0)
_0x89:
	__GETB1SX 68
	CP   R16,R30
	BRLO PC+3
	JMP _0x8A
	LDI  R17,LOW(0)
_0x8C:
	CPI  R17,8
	BRSH _0x8D
	LDI  R19,LOW(0)
_0x8F:
	__GETB1SX 68
	CP   R19,R30
	BRSH _0x90
	MOV  R30,R19
	__GETW2SX 71
	CALL SUBOPT_0x3F
	MOVW R22,R30
	MOV  R30,R17
	__GETB2SX 68
	MUL  R30,R26
	MOVW R30,R0
	MOVW R26,R22
	LDI  R31,0
	ADD  R26,R30
	ADC  R27,R31
	CPI  R26,LOW(0x40)
	LDI  R30,HIGH(0x40)
	CPC  R27,R30
	BRNE _0x91
	CALL SUBOPT_0x4
	CALL SUBOPT_0x3E
	ST   -Y,R31
	ST   -Y,R30
	RCALL _goto_xy
_0x91:
	CALL SUBOPT_0x1B
	CALL __LSLW3
	MOVW R26,R28
	ADIW R26,4
	ADD  R26,R30
	ADC  R27,R31
	CLR  R30
	ADD  R26,R16
	ADC  R27,R30
	LD   R30,X
	ST   -Y,R30
	RCALL _glcd_write
	SUBI R19,-1
	RJMP _0x8F
_0x90:
	SUBI R17,-1
	RJMP _0x8C
_0x8D:
	CALL SUBOPT_0x3E
	ST   -Y,R31
	ST   -Y,R30
	MOVW R26,R28
	SUBI R26,LOW(-(71))
	SBCI R27,HIGH(-(71))
	LD   R30,X+
	LD   R31,X+
	ADIW R30,1
	ST   -X,R31
	ST   -X,R30
	ST   -Y,R31
	ST   -Y,R30
	RCALL _goto_xy
	SUBI R16,-1
	RJMP _0x89
_0x8A:
	CALL __LOADLOCR4
	ADIW R28,63
	ADIW R28,12
	RET
_glcd_putchar:
;	c -> Y+6
;	x -> Y+4
;	y -> Y+2
;	l -> Y+1
;	sz -> Y+0
	LDD  R26,Y+1
	CPI  R26,LOW(0x1)
	BREQ PC+3
	JMP _0x92
	LDD  R30,Y+6
	CPI  R30,LOW(0x81)
	BRNE _0x96
	LDI  R30,LOW(250)
	RJMP _0xD7
_0x96:
	CPI  R30,LOW(0x90)
	BRNE _0x97
	LDI  R30,LOW(251)
	RJMP _0xD7
_0x97:
	CPI  R30,LOW(0x98)
	BRNE _0x98
	LDI  R30,LOW(252)
	RJMP _0xD7
_0x98:
	CPI  R30,LOW(0x8E)
	BRNE _0x99
	LDI  R30,LOW(253)
	RJMP _0xD7
_0x99:
	CPI  R30,LOW(0x8D)
	BRNE _0x95
	LDI  R30,LOW(254)
_0xD7:
	STD  Y+6,R30
_0x95:
	LDD  R26,Y+6
	CPI  R26,LOW(0xC1)
	BRLO _0x9C
	LDS  R26,_prevLet_G000
	LDS  R27,_prevLet_G000+1
	CPI  R26,LOW(0xC1)
	LDI  R30,HIGH(0xC1)
	CPC  R27,R30
	BRLT _0x9C
	CALL SUBOPT_0x40
	ADIW R30,5
	LPM  R30,Z
	CPI  R30,0
	BREQ _0x9C
	CALL SUBOPT_0x41
	ADIW R30,4
	LPM  R30,Z
	CPI  R30,0
	BRNE _0x9D
_0x9C:
	RJMP _0x9B
_0x9D:
	CALL SUBOPT_0x40
	MOVW R26,R30
	LDS  R30,_stat_G000
	SUBI R30,-LOW(1)
	CALL SUBOPT_0x3F
	LPM  R30,Z
	CALL SUBOPT_0x19
	LDS  R30,_prevX_G000
	CALL SUBOPT_0x19
	LDS  R30,_prevY_G000
	CALL SUBOPT_0x19
	RCALL _putIt
	LDI  R30,LOW(2)
	RJMP _0xD8
_0x9B:
	LDI  R30,LOW(0)
_0xD8:
	STS  _stat_G000,R30
	LDD  R26,Y+6
	CPI  R26,LOW(0xC1)
	BRLO _0x9F
	CALL SUBOPT_0x41
	MOVW R26,R30
	LDS  R30,_stat_G000
	CALL SUBOPT_0x3F
	LPM  R30,Z
	RJMP _0xD9
_0x9F:
	LDD  R30,Y+6
_0xD9:
	LDI  R31,0
	CALL SUBOPT_0x42
	CALL SUBOPT_0x42
	CALL SUBOPT_0x7
	RCALL _putItSz
	LDD  R30,Y+6
	LDI  R31,0
	STS  _prevLet_G000,R30
	STS  _prevLet_G000+1,R31
	LDD  R30,Y+4
	STS  _prevX_G000,R30
	LDD  R30,Y+2
	STS  _prevY_G000,R30
	RJMP _0xA1
_0x92:
	LDD  R30,Y+6
	CALL SUBOPT_0x19
	LDD  R30,Y+6
	LDD  R31,Y+6+1
	CALL SUBOPT_0x42
	CALL SUBOPT_0x7
	RCALL _putItSz
_0xA1:
_0x20A0002:
	ADIW R28,7
	RET
_glcd_puts:
	ST   -Y,R17
	ST   -Y,R16
;	*c -> Y+9
;	x -> Y+7
;	y -> Y+5
;	l -> Y+4
;	sz -> Y+3
;	space -> Y+2
;	i -> R17
;	special -> R16
	LDI  R17,0
	LDI  R16,0
_0xA2:
	CALL SUBOPT_0x25
	CALL _strlen
	CALL SUBOPT_0x1A
	CP   R26,R30
	CPC  R27,R31
	BRSH _0xA5
	LDD  R26,Y+4
	CPI  R26,LOW(0x0)
	BREQ _0xA6
_0xA5:
	RJMP _0xA4
_0xA6:
	CALL SUBOPT_0x43
	LD   R30,X
	ST   -Y,R30
	CALL SUBOPT_0x9
	CALL SUBOPT_0x9
	LDI  R30,LOW(0)
	CALL SUBOPT_0x44
	LDD  R30,Y+2
	SUBI R30,-LOW(8)
	LDD  R26,Y+3
	MUL  R30,R26
	MOVW R30,R0
	LDD  R26,Y+7
	LDD  R27,Y+7+1
	CALL SUBOPT_0x3F
	STD  Y+7,R30
	STD  Y+7+1,R31
	CALL SUBOPT_0x45
	LDI  R26,LOW(128)
	CALL __SWAPB12
	SUB  R30,R26
	CALL SUBOPT_0x46
	CP   R30,R26
	CPC  R31,R27
	BRGE _0xA7
	LDI  R30,LOW(0)
	STD  Y+7,R30
	STD  Y+7+1,R30
	LDD  R30,Y+3
	CALL SUBOPT_0x27
	ADD  R30,R26
	ADC  R31,R27
	STD  Y+5,R30
	STD  Y+5+1,R31
_0xA7:
	SUBI R17,-1
	RJMP _0xA2
_0xA4:
_0xA8:
	CALL SUBOPT_0x25
	CALL _strlen
	CALL SUBOPT_0x1A
	CP   R26,R30
	CPC  R27,R31
	BRSH _0xAB
	LDD  R26,Y+4
	CPI  R26,LOW(0x1)
	BREQ _0xAC
_0xAB:
	RJMP _0xAA
_0xAC:
	CALL SUBOPT_0x43
	LD   R26,X
	CPI  R26,LOW(0xE1)
	BRNE _0xAE
	MOV  R30,R17
	CALL SUBOPT_0x2A
	ADD  R30,R26
	ADC  R31,R27
	LDD  R26,Z+1
	CPI  R26,LOW(0xC7)
	BREQ _0xAF
_0xAE:
	RJMP _0xAD
_0xAF:
	LDI  R16,LOW(249)
	RJMP _0xB0
_0xAD:
	CALL SUBOPT_0x43
	LD   R26,X
	CPI  R26,LOW(0xE1)
	BRNE _0xB2
	MOV  R30,R17
	CALL SUBOPT_0x2A
	ADD  R30,R26
	ADC  R31,R27
	LDD  R26,Z+1
	CPI  R26,LOW(0xC3)
	BREQ _0xB3
_0xB2:
	RJMP _0xB1
_0xB3:
	LDI  R16,LOW(231)
	RJMP _0xB4
_0xB1:
	CALL SUBOPT_0x43
	LD   R26,X
	CPI  R26,LOW(0xE1)
	BRNE _0xB6
	MOV  R30,R17
	CALL SUBOPT_0x2A
	ADD  R30,R26
	ADC  R31,R27
	LDD  R26,Z+1
	CPI  R26,LOW(0xC2)
	BREQ _0xB7
_0xB6:
	RJMP _0xB5
_0xB7:
	LDI  R16,LOW(232)
	RJMP _0xB8
_0xB5:
	CALL SUBOPT_0x43
	LD   R26,X
	CPI  R26,LOW(0xE1)
	BRNE _0xBA
	MOV  R30,R17
	CALL SUBOPT_0x2A
	ADD  R30,R26
	ADC  R31,R27
	LDD  R26,Z+1
	CPI  R26,LOW(0xC5)
	BREQ _0xBB
_0xBA:
	RJMP _0xB9
_0xBB:
	LDI  R16,LOW(233)
_0xB9:
_0xB8:
_0xB4:
_0xB0:
	CPI  R16,0
	BREQ _0xBC
	ST   -Y,R16
	CALL SUBOPT_0x47
	CALL SUBOPT_0x9
	LDI  R30,LOW(1)
	CALL SUBOPT_0x44
	SUBI R17,-LOW(2)
	CALL SUBOPT_0x45
	CALL SUBOPT_0x46
	SUB  R26,R30
	SBC  R27,R31
	STD  Y+7,R26
	STD  Y+7+1,R27
	LDI  R16,LOW(0)
	RJMP _0xBD
_0xBC:
	CALL SUBOPT_0x43
	LD   R30,X
	ST   -Y,R30
	CALL SUBOPT_0x47
	CALL SUBOPT_0x9
	LDD  R30,Y+9
	CALL SUBOPT_0x44
	CALL SUBOPT_0x43
	LD   R26,X
	CPI  R26,LOW(0x20)
	BRNE _0xBE
	LDD  R30,Y+2
	SUBI R30,-LOW(8)
	LDD  R26,Y+3
	MUL  R30,R26
	MOVW R30,R0
	RJMP _0xDA
_0xBE:
	CALL SUBOPT_0x45
_0xDA:
	LDD  R26,Y+7
	LDD  R27,Y+7+1
	LDI  R31,0
	SUB  R26,R30
	SBC  R27,R31
	STD  Y+7,R26
	STD  Y+7+1,R27
	SUBI R17,-1
_0xBD:
	CALL SUBOPT_0x45
	SUBI R30,-LOW(1)
	CALL SUBOPT_0x46
	CP   R26,R30
	CPC  R27,R31
	BRGE _0xC0
	CALL SUBOPT_0x45
	LDI  R26,LOW(128)
	CALL SUBOPT_0x17
	STD  Y+7,R30
	STD  Y+7+1,R31
	LDD  R30,Y+3
	CALL SUBOPT_0x27
	ADD  R30,R26
	ADC  R31,R27
	STD  Y+5,R30
	STD  Y+5+1,R31
_0xC0:
	RJMP _0xA8
_0xAA:
	LDI  R30,LOW(193)
	LDI  R31,HIGH(193)
	STS  _prevLet_G000,R30
	STS  _prevLet_G000+1,R31
	LDD  R17,Y+1
	LDD  R16,Y+0
_0x20A0001:
	ADIW R28,11
	RET
_bmp_disp:
	CALL __SAVELOCR4
;	*bmp -> Y+12
;	x1 -> Y+10
;	y1 -> Y+8
;	x2 -> Y+6
;	y2 -> Y+4
;	i -> R16,R17
;	j -> R18,R19
	__GETWRS 16,17,8
_0xC2:
	LDD  R30,Y+4
	LDD  R31,Y+4+1
	CP   R30,R16
	CPC  R31,R17
	BRLO _0xC3
	__GETWRS 18,19,10
_0xC5:
	LDD  R30,Y+6
	LDD  R31,Y+6+1
	CP   R30,R18
	CPC  R31,R19
	BRLO _0xC6
	ST   -Y,R19
	ST   -Y,R18
	ST   -Y,R17
	ST   -Y,R16
	RCALL _goto_xy
	__MULBNWRU 16,17,128
	ADD  R30,R18
	ADC  R31,R19
	LDD  R26,Y+12
	LDD  R27,Y+12+1
	ADD  R30,R26
	ADC  R31,R27
	LPM  R30,Z
	ST   -Y,R30
	RCALL _glcd_write
	__ADDWRN 18,19,1
	RJMP _0xC5
_0xC6:
	__ADDWRN 16,17,1
	RJMP _0xC2
_0xC3:
	CALL __LOADLOCR4
	ADIW R28,14
	RET
;#include "Includes/seq2.h"
;
;void main(void)
; 0000 0022 {
_main:
; 0000 0023 #pragma used+
; 0000 0024 int i,j;
; 0000 0025 byte read_data;
; 0000 0026 byte read_arr[30];
; 0000 0027 unsigned char str[] = "WELCOME";
; 0000 0028 unsigned char str2[] = "OSAMA SALAH";
; 0000 0029 unsigned char ArStr[] = "";
; 0000 002A unsigned char ArStr2[] = "  ";
; 0000 002B #pragma used-
; 0000 002C 
; 0000 002D DDRB=0x1F;
	SBIW R28,63
	SBIW R28,10
	LDI  R24,43
	LDI  R26,LOW(0)
	LDI  R27,HIGH(0)
	LDI  R30,LOW(_0xC7*2)
	LDI  R31,HIGH(_0xC7*2)
	CALL __INITLOCB
;	i -> R16,R17
;	j -> R18,R19
;	read_data -> R21
;	read_arr -> Y+43
;	str -> Y+35
;	str2 -> Y+23
;	ArStr -> Y+17
;	ArStr2 -> Y+0
	LDI  R30,LOW(31)
	OUT  0x17,R30
; 0000 002E 
; 0000 002F DATADDR = 0xff;
	LDI  R30,LOW(255)
	OUT  0x1A,R30
; 0000 0030 DDRD=0x80;
	LDI  R30,LOW(128)
	OUT  0x11,R30
; 0000 0031 DDRC = 0x0F;
	LDI  R30,LOW(15)
	OUT  0x14,R30
; 0000 0032 
; 0000 0033 
; 0000 0034 glcd_on();
	RCALL _glcd_on
; 0000 0035 glcd_clear();
	RCALL _glcd_clear
; 0000 0036 
; 0000 0037 h_line(3,5,12,0,1); //X0,Y0,Length,Space,Color
	CALL SUBOPT_0x48
	CALL SUBOPT_0x49
	LDI  R30,LOW(12)
	CALL SUBOPT_0x4A
	RCALL _h_line
; 0000 0038 h_line(3,7,12,1,1);
	CALL SUBOPT_0x48
	CALL SUBOPT_0x4B
	LDI  R30,LOW(12)
	ST   -Y,R30
	CALL SUBOPT_0x4C
	CALL SUBOPT_0x4D
; 0000 0039 
; 0000 003A delay_ms(2000);
; 0000 003B glcd_clear();
; 0000 003C v_line(5,3,11,1,1);
	CALL SUBOPT_0x49
	CALL SUBOPT_0x48
	LDI  R30,LOW(11)
	LDI  R31,HIGH(11)
	ST   -Y,R31
	ST   -Y,R30
	CALL SUBOPT_0x4C
	CALL SUBOPT_0x4E
; 0000 003D 
; 0000 003E 
; 0000 003F delay_ms(2000);
; 0000 0040 glcd_clear();
; 0000 0041 line(16,16,127,63,0,1); //X1,Y1,X2,Y2,Spacing,Color
	LDI  R30,LOW(16)
	LDI  R31,HIGH(16)
	ST   -Y,R31
	ST   -Y,R30
	ST   -Y,R31
	ST   -Y,R30
	CALL SUBOPT_0x4F
; 0000 0042 line(60,15,15,60,0,1); //X1,Y1,X2,Y2,Spacing,Color
	CALL SUBOPT_0x50
	CALL SUBOPT_0x51
	CALL SUBOPT_0x51
	CALL SUBOPT_0x50
	CALL SUBOPT_0x52
; 0000 0043 line(0,0,127,63,0,1);
	CALL SUBOPT_0x2
	CALL SUBOPT_0x2
	CALL SUBOPT_0x4F
; 0000 0044 line(63,10,100,50,0,1);
	CALL SUBOPT_0x53
	CALL SUBOPT_0x54
	CALL SUBOPT_0x55
	CALL SUBOPT_0x56
	CALL SUBOPT_0x52
; 0000 0045 
; 0000 0046 v_line(63,5,20,0,1);
	CALL SUBOPT_0x53
	CALL SUBOPT_0x49
	LDI  R30,LOW(20)
	LDI  R31,HIGH(20)
	CALL SUBOPT_0x57
	CALL SUBOPT_0x4E
; 0000 0047 
; 0000 0048 delay_ms(2000);
; 0000 0049 glcd_clear();
; 0000 004A rectangle(8,8,70,50,0,1);
	LDI  R30,LOW(8)
	LDI  R31,HIGH(8)
	ST   -Y,R31
	ST   -Y,R30
	CALL SUBOPT_0x58
	CALL SUBOPT_0x56
	LDI  R30,LOW(0)
	ST   -Y,R30
	LDI  R30,LOW(1)
	ST   -Y,R30
	RCALL _rectangle
; 0000 004B rectangle(10,10,68,48,0,1);
	CALL SUBOPT_0x54
	CALL SUBOPT_0x54
	LDI  R30,LOW(68)
	LDI  R31,HIGH(68)
	CALL SUBOPT_0x59
	CALL SUBOPT_0x57
	RCALL _rectangle
; 0000 004C rectangle(12,12,66,46,0,1);
	LDI  R30,LOW(12)
	LDI  R31,HIGH(12)
	ST   -Y,R31
	ST   -Y,R30
	ST   -Y,R31
	ST   -Y,R30
	LDI  R30,LOW(66)
	LDI  R31,HIGH(66)
	ST   -Y,R31
	ST   -Y,R30
	LDI  R30,LOW(46)
	LDI  R31,HIGH(46)
	CALL SUBOPT_0x57
	RCALL _rectangle
; 0000 004D rectangle(14,14,64,44,0,1);
	LDI  R30,LOW(14)
	LDI  R31,HIGH(14)
	ST   -Y,R31
	ST   -Y,R30
	ST   -Y,R31
	ST   -Y,R30
	CALL SUBOPT_0x4
	LDI  R30,LOW(44)
	LDI  R31,HIGH(44)
	CALL SUBOPT_0x57
	RCALL _rectangle
; 0000 004E 
; 0000 004F delay_ms(2000);
	CALL SUBOPT_0x5A
; 0000 0050 glcd_clear();
; 0000 0051 cuboid(73,13,93,33,87,27,107,47,1,1);
	LDI  R30,LOW(73)
	LDI  R31,HIGH(73)
	ST   -Y,R31
	ST   -Y,R30
	LDI  R30,LOW(13)
	LDI  R31,HIGH(13)
	ST   -Y,R31
	ST   -Y,R30
	LDI  R30,LOW(93)
	LDI  R31,HIGH(93)
	ST   -Y,R31
	ST   -Y,R30
	LDI  R30,LOW(33)
	LDI  R31,HIGH(33)
	ST   -Y,R31
	ST   -Y,R30
	LDI  R30,LOW(87)
	LDI  R31,HIGH(87)
	ST   -Y,R31
	ST   -Y,R30
	LDI  R30,LOW(27)
	LDI  R31,HIGH(27)
	ST   -Y,R31
	ST   -Y,R30
	LDI  R30,LOW(107)
	LDI  R31,HIGH(107)
	ST   -Y,R31
	ST   -Y,R30
	LDI  R30,LOW(47)
	LDI  R31,HIGH(47)
	ST   -Y,R31
	ST   -Y,R30
	CALL SUBOPT_0x4C
	RCALL _cuboid
; 0000 0052 
; 0000 0053 delay_ms(2000);
	CALL SUBOPT_0x5A
; 0000 0054 glcd_clear();
; 0000 0055 v_parallelogram(60,10,83,50,20,0,1);
	CALL SUBOPT_0x50
	CALL SUBOPT_0x54
	LDI  R30,LOW(83)
	LDI  R31,HIGH(83)
	ST   -Y,R31
	ST   -Y,R30
	CALL SUBOPT_0x56
	LDI  R30,LOW(20)
	CALL SUBOPT_0x4A
	RCALL _v_parallelogram
; 0000 0056 
; 0000 0057 delay_ms(2000);
	CALL SUBOPT_0x5A
; 0000 0058 glcd_clear();
; 0000 0059 v_parallelepiped(10,15,30,48,48, 110,30,100,20,11,0,1);
	CALL SUBOPT_0x54
	CALL SUBOPT_0x51
	CALL SUBOPT_0x5B
	CALL SUBOPT_0x5C
	CALL SUBOPT_0x5D
	CALL SUBOPT_0x5E
	CALL SUBOPT_0x55
	LDI  R30,LOW(20)
	LDI  R31,HIGH(20)
	ST   -Y,R31
	ST   -Y,R30
	LDI  R30,LOW(11)
	CALL SUBOPT_0x4A
	RCALL _v_parallelepiped
; 0000 005A 
; 0000 005B delay_ms(2000);
	CALL SUBOPT_0x5A
; 0000 005C glcd_clear();
; 0000 005D v_parallelepiped(10,15,30,48,48, 60,30,70,30,11,0,1);
	CALL SUBOPT_0x54
	CALL SUBOPT_0x51
	CALL SUBOPT_0x5B
	CALL SUBOPT_0x5C
	CALL SUBOPT_0x50
	LDI  R30,LOW(30)
	LDI  R31,HIGH(30)
	CALL SUBOPT_0x58
	CALL SUBOPT_0x5E
	LDI  R30,LOW(11)
	CALL SUBOPT_0x4A
	RCALL _v_parallelepiped
; 0000 005E v_parallelepiped(10,15,30,48,48, 35,30,45,30,11,0,1);
	CALL SUBOPT_0x54
	CALL SUBOPT_0x51
	CALL SUBOPT_0x5B
	CALL SUBOPT_0x5C
	LDI  R30,LOW(35)
	LDI  R31,HIGH(35)
	CALL SUBOPT_0x5F
	LDI  R30,LOW(45)
	LDI  R31,HIGH(45)
	CALL SUBOPT_0x5F
	LDI  R30,LOW(11)
	CALL SUBOPT_0x4A
	RCALL _v_parallelepiped
; 0000 005F v_parallelepiped(60,30,70,30,11, 110,15,120,48,48,0,1);
	CALL SUBOPT_0x50
	LDI  R30,LOW(30)
	LDI  R31,HIGH(30)
	CALL SUBOPT_0x58
	CALL SUBOPT_0x5E
	LDI  R30,LOW(11)
	ST   -Y,R30
	CALL SUBOPT_0x5D
	CALL SUBOPT_0x51
	LDI  R30,LOW(120)
	LDI  R31,HIGH(120)
	CALL SUBOPT_0x59
	ST   -Y,R31
	ST   -Y,R30
	LDI  R30,LOW(48)
	CALL SUBOPT_0x4A
	RCALL _v_parallelepiped
; 0000 0060 v_parallelepiped(90,30,100,30,11, 110,15,120,48,48,0,1);
	LDI  R30,LOW(90)
	LDI  R31,HIGH(90)
	CALL SUBOPT_0x5F
	CALL SUBOPT_0x55
	CALL SUBOPT_0x5E
	LDI  R30,LOW(11)
	ST   -Y,R30
	CALL SUBOPT_0x5D
	CALL SUBOPT_0x51
	LDI  R30,LOW(120)
	LDI  R31,HIGH(120)
	CALL SUBOPT_0x59
	ST   -Y,R31
	ST   -Y,R30
	LDI  R30,LOW(48)
	CALL SUBOPT_0x4A
	RCALL _v_parallelepiped
; 0000 0061 
; 0000 0062 delay_ms(2000);
	CALL SUBOPT_0x5A
; 0000 0063 glcd_clear();
; 0000 0064 circle(63,31,28,0,1);
	CALL SUBOPT_0x53
	CALL SUBOPT_0x60
	LDI  R30,LOW(28)
	LDI  R31,HIGH(28)
	CALL SUBOPT_0x57
	RCALL _circle
; 0000 0065 circle(63,31,14,0,1);
	CALL SUBOPT_0x53
	CALL SUBOPT_0x60
	LDI  R30,LOW(14)
	LDI  R31,HIGH(14)
	CALL SUBOPT_0x57
	RCALL _circle
; 0000 0066 v_line(63,4,55,0,1);
	CALL SUBOPT_0x53
	LDI  R30,LOW(4)
	LDI  R31,HIGH(4)
	ST   -Y,R31
	ST   -Y,R30
	LDI  R30,LOW(55)
	LDI  R31,HIGH(55)
	CALL SUBOPT_0x57
	RCALL _v_line
; 0000 0067 h_line(37,31,53,0,1);
	LDI  R30,LOW(37)
	LDI  R31,HIGH(37)
	ST   -Y,R31
	ST   -Y,R30
	CALL SUBOPT_0x60
	LDI  R30,LOW(53)
	CALL SUBOPT_0x4A
	CALL SUBOPT_0x4D
; 0000 0068 
; 0000 0069 delay_ms(2000);
; 0000 006A glcd_clear();               //clear GLCD
; 0000 006B glcd_puts(str,0,0,0,0,1);       //Put an English string at column 0,row 0
	MOVW R30,R28
	ADIW R30,35
	CALL SUBOPT_0x61
	CALL SUBOPT_0x2
	LDI  R30,LOW(0)
	CALL SUBOPT_0x4A
	RCALL _glcd_puts
; 0000 006C glcd_puts(str2,40,3,0,0,1);     //put another English string at column 5,row 3
	MOVW R30,R28
	ADIW R30,23
	ST   -Y,R31
	ST   -Y,R30
	LDI  R30,LOW(40)
	LDI  R31,HIGH(40)
	ST   -Y,R31
	ST   -Y,R30
	CALL SUBOPT_0x48
	LDI  R30,LOW(0)
	CALL SUBOPT_0x4A
	RCALL _glcd_puts
; 0000 006D delay_ms(2000);             //wait a second
	CALL SUBOPT_0x62
; 0000 006E glcd_off();                 //Turn off display
	RCALL _glcd_off
; 0000 006F delay_ms(2000);             //wait a second
	CALL SUBOPT_0x62
; 0000 0070 glcd_on();                  //Turn on display
	RCALL _glcd_on
; 0000 0071 delay_ms(2000);             //wait a second
	CALL SUBOPT_0x62
; 0000 0072 glcd_clrln(0);              //Clear the first line
	LDI  R30,LOW(0)
	ST   -Y,R30
	RCALL _glcd_clrln
; 0000 0073 glcd_puts(ArStr,120,0,1,0,1);   //Put an Arabic string at column 15,row 6
	MOVW R30,R28
	ADIW R30,17
	ST   -Y,R31
	ST   -Y,R30
	LDI  R30,LOW(120)
	LDI  R31,HIGH(120)
	CALL SUBOPT_0x61
	LDI  R30,LOW(1)
	CALL SUBOPT_0x4A
	RCALL _glcd_puts
; 0000 0074 glcd_puts(ArStr2,120,6,1,0,1);  //Put another Arabic string at column 15,row 6
	MOVW R30,R28
	ST   -Y,R31
	ST   -Y,R30
	LDI  R30,LOW(120)
	LDI  R31,HIGH(120)
	ST   -Y,R31
	ST   -Y,R30
	LDI  R30,LOW(6)
	LDI  R31,HIGH(6)
	ST   -Y,R31
	ST   -Y,R30
	LDI  R30,LOW(1)
	CALL SUBOPT_0x4A
	RCALL _glcd_puts
; 0000 0075 
; 0000 0076 //delay_ms(2000);
; 0000 0077 while(1)
_0xC8:
; 0000 0078 {
; 0000 0079     for(j=0;j<4;j++)
	__GETWRN 18,19,0
_0xCC:
	__CPWRN 18,19,4
	BRGE _0xCD
; 0000 007A     {
; 0000 007B         bmp_disp(seq2[j],0,0,127,7);
	CALL SUBOPT_0x63
	CALL SUBOPT_0x2
	CALL SUBOPT_0x64
	CALL SUBOPT_0x65
; 0000 007C         delay_ms(250);
; 0000 007D     }
	__ADDWRN 18,19,1
	RJMP _0xCC
_0xCD:
; 0000 007E     delay_ms(250);
	CALL SUBOPT_0x66
; 0000 007F     for(j=3;j>=0;j--)
	__GETWRN 18,19,3
_0xCF:
	TST  R19
	BRMI _0xD0
; 0000 0080     {
; 0000 0081         bmp_disp(seq2[j],0,0,127,7);
	CALL SUBOPT_0x63
	CALL SUBOPT_0x2
	CALL SUBOPT_0x64
	CALL SUBOPT_0x65
; 0000 0082         delay_ms(250);
; 0000 0083     }
	__SUBWRN 18,19,1
	RJMP _0xCF
_0xD0:
; 0000 0084     delay_ms(250);
	CALL SUBOPT_0x66
; 0000 0085     bmp_disp(arr,0,0,127,7);
	LDI  R30,LOW(_arr*2)
	LDI  R31,HIGH(_arr*2)
	CALL SUBOPT_0x61
	CALL SUBOPT_0x2
	CALL SUBOPT_0x64
	RCALL _bmp_disp
; 0000 0086     for(j=0;j<64;j++)
	__GETWRN 18,19,0
_0xD2:
	__CPWRN 18,19,64
	BRGE _0xD3
; 0000 0087     {
; 0000 0088         set_start_line(j);
	ST   -Y,R18
	RCALL _set_start_line
; 0000 0089         delay_ms(100);
	CALL SUBOPT_0x55
	CALL _delay_ms
; 0000 008A     }
	__ADDWRN 18,19,1
	RJMP _0xD2
_0xD3:
; 0000 008B }
	RJMP _0xC8
; 0000 008C }
_0xD4:
	RJMP _0xD4
	#ifndef __SLEEP_DEFINED__
	#define __SLEEP_DEFINED__
	.EQU __se_bit=0x80
	.EQU __sm_mask=0x70
	.EQU __sm_powerdown=0x20
	.EQU __sm_powersave=0x30
	.EQU __sm_standby=0x60
	.EQU __sm_ext_standby=0x70
	.EQU __sm_adc_noise_red=0x10
	.SET power_ctrl_reg=mcucr
	#endif

	.CSEG

	.CSEG
_abs:
    ld   r30,y+
    ld   r31,y+
    sbiw r30,0
    brpl __abs0
    com  r30
    com  r31
    adiw r30,1
__abs0:
    ret

	.DSEG

	.CSEG

	.CSEG
_max:
    ld   r26,y+
    ld   r27,y+
    ld   r30,y+
    ld   r31,y+
    cp   r26,r30
    cpc  r27,r31
    brlt __max0
    movw r30,r26
__max0:
    ret
_min:
    ld   r26,y+
    ld   r27,y+
    ld   r30,y+
    ld   r31,y+
    cp   r30,r26
    cpc  r31,r27
    brlt __min0
    movw r30,r26
__min0:
    ret
_isqrt:
    ld   r26,y+
    ld   r27,y+
    clr	 r30
	clr	 r0
	ldi	 r22,0x80
	clt
__isqrt0:
	mov	 r1,r22
	lsr	 r1
	ror	 r0
	or	 r1,r30
	brts __isqrt1
	cp	 r26,r0
	cpc	 r27,r1
	brcs __isqrt2
__isqrt1:
	sub	 r26,r0
	sbc	 r27,r1
	or	 r30,r22
__isqrt2:
	bst	 r27,7
	lsl	 r26
	rol	 r27
	lsr	 r22
	brcc __isqrt0
	ret

	.CSEG
_strlen:
    ld   r26,y+
    ld   r27,y+
    clr  r30
    clr  r31
strlen0:
    ld   r22,x+
    tst  r22
    breq strlen1
    adiw r30,1
    rjmp strlen0
strlen1:
    ret

	.CSEG

	.DSEG
_prevLet_G000:
	.BYTE 0x2
_stat_G000:
	.BYTE 0x1
_prevX_G000:
	.BYTE 0x1
_prevY_G000:
	.BYTE 0x1
__seed_G101:
	.BYTE 0x4

	.CSEG
;OPTIMIZER ADDED SUBROUTINE, CALLED 3 TIMES, CODE SIZE REDUCTION:1 WORDS
SUBOPT_0x0:
	ST   -Y,R31
	ST   -Y,R30
	JMP  _goto_col

;OPTIMIZER ADDED SUBROUTINE, CALLED 3 TIMES, CODE SIZE REDUCTION:1 WORDS
SUBOPT_0x1:
	ST   -Y,R31
	ST   -Y,R30
	JMP  _goto_row

;OPTIMIZER ADDED SUBROUTINE, CALLED 12 TIMES, CODE SIZE REDUCTION:19 WORDS
SUBOPT_0x2:
	LDI  R30,LOW(0)
	LDI  R31,HIGH(0)
	ST   -Y,R31
	ST   -Y,R30
	RET

;OPTIMIZER ADDED SUBROUTINE, CALLED 2 TIMES, CODE SIZE REDUCTION:3 WORDS
SUBOPT_0x3:
	LDD  R30,Y+4
	LDI  R31,0
	ST   -Y,R31
	ST   -Y,R30
	JMP  _goto_xy

;OPTIMIZER ADDED SUBROUTINE, CALLED 3 TIMES, CODE SIZE REDUCTION:1 WORDS
SUBOPT_0x4:
	LDI  R30,LOW(64)
	LDI  R31,HIGH(64)
	ST   -Y,R31
	ST   -Y,R30
	RET

;OPTIMIZER ADDED SUBROUTINE, CALLED 2 TIMES, CODE SIZE REDUCTION:7 WORDS
SUBOPT_0x5:
	LDD  R30,Y+4
	LDD  R31,Y+4+1
	ST   -Y,R31
	ST   -Y,R30
	LDD  R30,Y+4
	LDD  R31,Y+4+1
	CALL __LSRW3
	ST   -Y,R31
	ST   -Y,R30
	JMP  _goto_xy

;OPTIMIZER ADDED SUBROUTINE, CALLED 2 TIMES, CODE SIZE REDUCTION:2 WORDS
SUBOPT_0x6:
	LDD  R30,Y+2
	LDD  R31,Y+2+1
	ANDI R30,LOW(0x7)
	ANDI R31,HIGH(0x7)
	LDI  R26,LOW(1)
	CALL __LSLB12
	RET

;OPTIMIZER ADDED SUBROUTINE, CALLED 3 TIMES, CODE SIZE REDUCTION:1 WORDS
SUBOPT_0x7:
	ST   -Y,R31
	ST   -Y,R30
	LDD  R30,Y+6
	ST   -Y,R30
	RET

;OPTIMIZER ADDED SUBROUTINE, CALLED 2 TIMES, CODE SIZE REDUCTION:2 WORDS
SUBOPT_0x8:
	LDD  R30,Y+3
	SUBI R30,-LOW(1)
	LDI  R31,0
	__ADDWRR 16,17,30,31
	RET

;OPTIMIZER ADDED SUBROUTINE, CALLED 19 TIMES, CODE SIZE REDUCTION:33 WORDS
SUBOPT_0x9:
	LDD  R30,Y+8
	LDD  R31,Y+8+1
	ST   -Y,R31
	ST   -Y,R30
	RET

;OPTIMIZER ADDED SUBROUTINE, CALLED 2 TIMES, CODE SIZE REDUCTION:1 WORDS
SUBOPT_0xA:
	LDD  R30,Y+18
	LDD  R31,Y+18+1
	LDD  R26,Y+22
	LDD  R27,Y+22+1
	CP   R30,R26
	CPC  R31,R27
	RET

;OPTIMIZER ADDED SUBROUTINE, CALLED 6 TIMES, CODE SIZE REDUCTION:7 WORDS
SUBOPT_0xB:
	LDD  R30,Y+22
	LDD  R31,Y+22+1
	ST   -Y,R31
	ST   -Y,R30
	RET

;OPTIMIZER ADDED SUBROUTINE, CALLED 2 TIMES, CODE SIZE REDUCTION:3 WORDS
SUBOPT_0xC:
	LDD  R30,Y+20
	LDD  R31,Y+20+1
	ST   -Y,R31
	ST   -Y,R30
	CALL _min
	ST   -Y,R31
	ST   -Y,R30
	RET

;OPTIMIZER ADDED SUBROUTINE, CALLED 2 TIMES, CODE SIZE REDUCTION:1 WORDS
SUBOPT_0xD:
	SUB  R30,R26
	SBC  R31,R27
	ST   -Y,R31
	ST   -Y,R30
	JMP  _abs

;OPTIMIZER ADDED SUBROUTINE, CALLED 2 TIMES, CODE SIZE REDUCTION:3 WORDS
SUBOPT_0xE:
	ST   -Y,R31
	ST   -Y,R30
	LDD  R30,Y+21
	ST   -Y,R30
	LDD  R30,Y+21
	ST   -Y,R30
	JMP  _v_line

;OPTIMIZER ADDED SUBROUTINE, CALLED 3 TIMES, CODE SIZE REDUCTION:3 WORDS
SUBOPT_0xF:
	ST   -Y,R30
	LDD  R30,Y+20
	ST   -Y,R30
	JMP  _h_line

;OPTIMIZER ADDED SUBROUTINE, CALLED 6 TIMES, CODE SIZE REDUCTION:7 WORDS
SUBOPT_0x10:
	MOV  R30,R19
	LDI  R31,0
	RET

;OPTIMIZER ADDED SUBROUTINE, CALLED 3 TIMES, CODE SIZE REDUCTION:1 WORDS
SUBOPT_0x11:
	CLR  R22
	CLR  R23
	CALL __CDF1
	RET

;OPTIMIZER ADDED SUBROUTINE, CALLED 2 TIMES, CODE SIZE REDUCTION:5 WORDS
SUBOPT_0x12:
	LDD  R30,Y+22
	LDD  R31,Y+22+1
	__GETD2S 10
	RCALL SUBOPT_0x11
	CALL __MULF12
	RET

;OPTIMIZER ADDED SUBROUTINE, CALLED 2 TIMES, CODE SIZE REDUCTION:1 WORDS
SUBOPT_0x13:
	__GETD2S 6
	CALL __ADDF12
	RET

;OPTIMIZER ADDED SUBROUTINE, CALLED 2 TIMES, CODE SIZE REDUCTION:3 WORDS
SUBOPT_0x14:
	LDD  R30,Y+18
	LDD  R31,Y+18+1
	MOV  R26,R17
	LDI  R27,0
	CP   R30,R26
	CPC  R31,R27
	RET

;OPTIMIZER ADDED SUBROUTINE, CALLED 2 TIMES, CODE SIZE REDUCTION:2 WORDS
SUBOPT_0x15:
	MOV  R30,R17
	SUBI R30,LOW(1)
	LDI  R31,0
	ST   -Y,R31
	ST   -Y,R30
	RET

;OPTIMIZER ADDED SUBROUTINE, CALLED 2 TIMES, CODE SIZE REDUCTION:1 WORDS
SUBOPT_0x16:
	SUBI R30,-LOW(1)
	LDI  R31,0
	ST   -Y,R31
	ST   -Y,R30
	RET

;OPTIMIZER ADDED SUBROUTINE, CALLED 2 TIMES, CODE SIZE REDUCTION:1 WORDS
SUBOPT_0x17:
	CALL __SWAPB12
	SUB  R30,R26
	LDI  R31,0
	RET

;OPTIMIZER ADDED SUBROUTINE, CALLED 9 TIMES, CODE SIZE REDUCTION:29 WORDS
SUBOPT_0x18:
	MOV  R30,R16
	LDI  R31,0
	ST   -Y,R31
	ST   -Y,R30
	RET

;OPTIMIZER ADDED SUBROUTINE, CALLED 12 TIMES, CODE SIZE REDUCTION:30 WORDS
SUBOPT_0x19:
	LDI  R31,0
	ST   -Y,R31
	ST   -Y,R30
	RET

;OPTIMIZER ADDED SUBROUTINE, CALLED 4 TIMES, CODE SIZE REDUCTION:3 WORDS
SUBOPT_0x1A:
	MOV  R26,R17
	LDI  R27,0
	RET

;OPTIMIZER ADDED SUBROUTINE, CALLED 5 TIMES, CODE SIZE REDUCTION:5 WORDS
SUBOPT_0x1B:
	MOV  R30,R17
	LDI  R31,0
	RET

;OPTIMIZER ADDED SUBROUTINE, CALLED 9 TIMES, CODE SIZE REDUCTION:13 WORDS
SUBOPT_0x1C:
	LDD  R30,Y+18
	LDD  R31,Y+18+1
	ST   -Y,R31
	ST   -Y,R30
	RET

;OPTIMIZER ADDED SUBROUTINE, CALLED 2 TIMES, CODE SIZE REDUCTION:10 WORDS
SUBOPT_0x1D:
	LDD  R26,Y+12
	LDD  R27,Y+12+1
	LDD  R30,Y+8
	LDD  R31,Y+8+1
	SUB  R30,R26
	SBC  R31,R27
	ST   -Y,R30
	LDD  R30,Y+6
	ST   -Y,R30
	LDD  R30,Y+6
	ST   -Y,R30
	CALL _h_line
	RJMP SUBOPT_0x9

;OPTIMIZER ADDED SUBROUTINE, CALLED 2 TIMES, CODE SIZE REDUCTION:1 WORDS
SUBOPT_0x1E:
	LDD  R26,Y+10
	LDD  R27,Y+10+1
	LDD  R30,Y+6
	LDD  R31,Y+6+1
	SUB  R30,R26
	SBC  R31,R27
	RET

;OPTIMIZER ADDED SUBROUTINE, CALLED 2 TIMES, CODE SIZE REDUCTION:3 WORDS
SUBOPT_0x1F:
	ST   -Y,R31
	ST   -Y,R30
	LDD  R30,Y+7
	ST   -Y,R30
	LDD  R30,Y+7
	ST   -Y,R30
	JMP  _v_line

;OPTIMIZER ADDED SUBROUTINE, CALLED 4 TIMES, CODE SIZE REDUCTION:3 WORDS
SUBOPT_0x20:
	ST   -Y,R31
	ST   -Y,R30
	RJMP SUBOPT_0x9

;OPTIMIZER ADDED SUBROUTINE, CALLED 7 TIMES, CODE SIZE REDUCTION:9 WORDS
SUBOPT_0x21:
	LDD  R30,Y+16
	LDD  R31,Y+16+1
	ST   -Y,R31
	ST   -Y,R30
	RET

;OPTIMIZER ADDED SUBROUTINE, CALLED 2 TIMES, CODE SIZE REDUCTION:1 WORDS
SUBOPT_0x22:
	LDD  R30,Y+9
	ST   -Y,R30
	LDD  R30,Y+9
	ST   -Y,R30
	JMP  _rectangle

;OPTIMIZER ADDED SUBROUTINE, CALLED 6 TIMES, CODE SIZE REDUCTION:7 WORDS
SUBOPT_0x23:
	LDD  R30,Y+12
	LDD  R31,Y+12+1
	ST   -Y,R31
	ST   -Y,R30
	RET

;OPTIMIZER ADDED SUBROUTINE, CALLED 10 TIMES, CODE SIZE REDUCTION:33 WORDS
SUBOPT_0x24:
	LDD  R30,Y+9
	ST   -Y,R30
	LDD  R30,Y+9
	ST   -Y,R30
	JMP  _line

;OPTIMIZER ADDED SUBROUTINE, CALLED 17 TIMES, CODE SIZE REDUCTION:29 WORDS
SUBOPT_0x25:
	LDD  R30,Y+9
	LDD  R31,Y+9+1
	ST   -Y,R31
	ST   -Y,R30
	RET

;OPTIMIZER ADDED SUBROUTINE, CALLED 2 TIMES, CODE SIZE REDUCTION:1 WORDS
SUBOPT_0x26:
	LDD  R30,Y+7
	ST   -Y,R30
	LDD  R30,Y+7
	ST   -Y,R30
	JMP  _v_line

;OPTIMIZER ADDED SUBROUTINE, CALLED 3 TIMES, CODE SIZE REDUCTION:3 WORDS
SUBOPT_0x27:
	LDD  R26,Y+5
	LDD  R27,Y+5+1
	LDI  R31,0
	RET

;OPTIMIZER ADDED SUBROUTINE, CALLED 4 TIMES, CODE SIZE REDUCTION:12 WORDS
SUBOPT_0x28:
	CALL __SWAPW12
	SUB  R30,R26
	SBC  R31,R27
	ADIW R30,1
	ST   -Y,R31
	ST   -Y,R30
	RET

;OPTIMIZER ADDED SUBROUTINE, CALLED 2 TIMES, CODE SIZE REDUCTION:3 WORDS
SUBOPT_0x29:
	LDD  R30,Y+8
	LDD  R26,Y+9
	LDD  R27,Y+9+1
	LDI  R31,0
	RJMP SUBOPT_0x28

;OPTIMIZER ADDED SUBROUTINE, CALLED 5 TIMES, CODE SIZE REDUCTION:9 WORDS
SUBOPT_0x2A:
	LDD  R26,Y+9
	LDD  R27,Y+9+1
	LDI  R31,0
	RET

;OPTIMIZER ADDED SUBROUTINE, CALLED 3 TIMES, CODE SIZE REDUCTION:3 WORDS
SUBOPT_0x2B:
	ADD  R26,R30
	ADC  R27,R31
	SBIW R26,1
	ST   -Y,R27
	ST   -Y,R26
	RET

;OPTIMIZER ADDED SUBROUTINE, CALLED 2 TIMES, CODE SIZE REDUCTION:2 WORDS
SUBOPT_0x2C:
	ST   -Y,R30
	LDD  R30,Y+10
	ST   -Y,R30
	LDD  R30,Y+10
	ST   -Y,R30
	JMP  _v_parallelogram

;OPTIMIZER ADDED SUBROUTINE, CALLED 3 TIMES, CODE SIZE REDUCTION:1 WORDS
SUBOPT_0x2D:
	LDD  R30,Y+13
	LDD  R31,Y+13+1
	ST   -Y,R31
	ST   -Y,R30
	RET

;OPTIMIZER ADDED SUBROUTINE, CALLED 3 TIMES, CODE SIZE REDUCTION:1 WORDS
SUBOPT_0x2E:
	LDD  R30,Y+14
	LDD  R31,Y+14+1
	ST   -Y,R31
	ST   -Y,R30
	RET

;OPTIMIZER ADDED SUBROUTINE, CALLED 15 TIMES, CODE SIZE REDUCTION:25 WORDS
SUBOPT_0x2F:
	SUB  R26,R30
	SBC  R27,R31
	ST   -Y,R27
	ST   -Y,R26
	RET

;OPTIMIZER ADDED SUBROUTINE, CALLED 2 TIMES, CODE SIZE REDUCTION:11 WORDS
SUBOPT_0x30:
	MOV  R30,R17
	LDD  R26,Y+10
	LDD  R27,Y+10+1
	LDI  R31,0
	ADD  R30,R26
	ADC  R31,R27
	ST   -Y,R31
	ST   -Y,R30
	MOV  R30,R16
	LDD  R26,Y+10
	LDD  R27,Y+10+1
	LDI  R31,0
	RET

;OPTIMIZER ADDED SUBROUTINE, CALLED 2 TIMES, CODE SIZE REDUCTION:3 WORDS
SUBOPT_0x31:
	ADD  R30,R26
	ADC  R31,R27
	ST   -Y,R31
	ST   -Y,R30
	LDD  R30,Y+8
	ST   -Y,R30
	JMP  _point_at

;OPTIMIZER ADDED SUBROUTINE, CALLED 2 TIMES, CODE SIZE REDUCTION:3 WORDS
SUBOPT_0x32:
	MOV  R30,R17
	LDD  R26,Y+10
	LDD  R27,Y+10+1
	LDI  R31,0
	RJMP SUBOPT_0x2F

;OPTIMIZER ADDED SUBROUTINE, CALLED 4 TIMES, CODE SIZE REDUCTION:9 WORDS
SUBOPT_0x33:
	MOV  R30,R16
	LDD  R26,Y+10
	LDD  R27,Y+10+1
	LDI  R31,0
	RET

;OPTIMIZER ADDED SUBROUTINE, CALLED 5 TIMES, CODE SIZE REDUCTION:5 WORDS
SUBOPT_0x34:
	MOV  R30,R19
	SUB  R30,R16
	RJMP SUBOPT_0x19

;OPTIMIZER ADDED SUBROUTINE, CALLED 2 TIMES, CODE SIZE REDUCTION:8 WORDS
SUBOPT_0x35:
	MOV  R30,R17
	SUBI R30,LOW(1)
	LDD  R26,Y+10
	LDD  R27,Y+10+1
	LDI  R31,0
	ADD  R30,R26
	ADC  R31,R27
	ST   -Y,R31
	ST   -Y,R30
	RJMP SUBOPT_0x10

;OPTIMIZER ADDED SUBROUTINE, CALLED 6 TIMES, CODE SIZE REDUCTION:7 WORDS
SUBOPT_0x36:
	ST   -Y,R31
	ST   -Y,R30
	RJMP SUBOPT_0x18

;OPTIMIZER ADDED SUBROUTINE, CALLED 2 TIMES, CODE SIZE REDUCTION:6 WORDS
SUBOPT_0x37:
	CALL _min
	LDD  R26,Y+10
	LDD  R27,Y+10+1
	ADD  R30,R26
	ADC  R31,R27
	ADIW R30,1
	ST   -Y,R31
	ST   -Y,R30
	RJMP SUBOPT_0x34

;OPTIMIZER ADDED SUBROUTINE, CALLED 4 TIMES, CODE SIZE REDUCTION:21 WORDS
SUBOPT_0x38:
	CALL _abs
	ST   -Y,R31
	ST   -Y,R30
	LDD  R30,Y+11
	ST   -Y,R30
	LDD  R30,Y+11
	ST   -Y,R30
	JMP  _v_line

;OPTIMIZER ADDED SUBROUTINE, CALLED 2 TIMES, CODE SIZE REDUCTION:1 WORDS
SUBOPT_0x39:
	CALL _max
	LDD  R26,Y+10
	LDD  R27,Y+10+1
	RJMP SUBOPT_0x2F

;OPTIMIZER ADDED SUBROUTINE, CALLED 4 TIMES, CODE SIZE REDUCTION:18 WORDS
SUBOPT_0x3A:
	MOV  R30,R17
	SUBI R30,LOW(1)
	LDD  R26,Y+10
	LDD  R27,Y+10+1
	LDI  R31,0
	RJMP SUBOPT_0x2F

;OPTIMIZER ADDED SUBROUTINE, CALLED 2 TIMES, CODE SIZE REDUCTION:6 WORDS
SUBOPT_0x3B:
	MOV  R30,R17
	SUBI R30,LOW(1)
	LDD  R26,Y+10
	LDD  R27,Y+10+1
	LDI  R31,0
	ADD  R30,R26
	ADC  R31,R27
	ST   -Y,R31
	ST   -Y,R30
	RET

;OPTIMIZER ADDED SUBROUTINE, CALLED 4 TIMES, CODE SIZE REDUCTION:9 WORDS
SUBOPT_0x3C:
	LDD  R30,Y+11
	ST   -Y,R30
	LDD  R30,Y+11
	ST   -Y,R30
	JMP  _v_line

;OPTIMIZER ADDED SUBROUTINE, CALLED 2 TIMES, CODE SIZE REDUCTION:1 WORDS
SUBOPT_0x3D:
	LDD  R26,Y+6
	LDD  R27,Y+6+1
	CLR  R30
	ADD  R26,R17
	ADC  R27,R30
	LD   R30,X
	RET

;OPTIMIZER ADDED SUBROUTINE, CALLED 3 TIMES, CODE SIZE REDUCTION:5 WORDS
SUBOPT_0x3E:
	__GETW1SX 71
	RET

;OPTIMIZER ADDED SUBROUTINE, CALLED 4 TIMES, CODE SIZE REDUCTION:6 WORDS
SUBOPT_0x3F:
	LDI  R31,0
	ADD  R30,R26
	ADC  R31,R27
	RET

;OPTIMIZER ADDED SUBROUTINE, CALLED 2 TIMES, CODE SIZE REDUCTION:7 WORDS
SUBOPT_0x40:
	LDS  R30,_prevLet_G000
	LDS  R31,_prevLet_G000+1
	SUBI R30,LOW(193)
	SBCI R31,HIGH(193)
	LDI  R26,LOW(6)
	LDI  R27,HIGH(6)
	CALL __MULW12U
	SUBI R30,LOW(-_map*2)
	SBCI R31,HIGH(-_map*2)
	RET

;OPTIMIZER ADDED SUBROUTINE, CALLED 2 TIMES, CODE SIZE REDUCTION:2 WORDS
SUBOPT_0x41:
	LDD  R30,Y+6
	SUBI R30,LOW(193)
	LDI  R26,LOW(6)
	MUL  R30,R26
	MOVW R30,R0
	SUBI R30,LOW(-_map*2)
	SBCI R31,HIGH(-_map*2)
	RET

;OPTIMIZER ADDED SUBROUTINE, CALLED 3 TIMES, CODE SIZE REDUCTION:1 WORDS
SUBOPT_0x42:
	ST   -Y,R31
	ST   -Y,R30
	LDD  R30,Y+6
	LDD  R31,Y+6+1
	RET

;OPTIMIZER ADDED SUBROUTINE, CALLED 7 TIMES, CODE SIZE REDUCTION:15 WORDS
SUBOPT_0x43:
	LDD  R26,Y+9
	LDD  R27,Y+9+1
	CLR  R30
	ADD  R26,R17
	ADC  R27,R30
	RET

;OPTIMIZER ADDED SUBROUTINE, CALLED 3 TIMES, CODE SIZE REDUCTION:3 WORDS
SUBOPT_0x44:
	ST   -Y,R30
	LDD  R30,Y+9
	ST   -Y,R30
	JMP  _glcd_putchar

;OPTIMIZER ADDED SUBROUTINE, CALLED 5 TIMES, CODE SIZE REDUCTION:5 WORDS
SUBOPT_0x45:
	LDD  R30,Y+3
	LSL  R30
	LSL  R30
	LSL  R30
	RET

;OPTIMIZER ADDED SUBROUTINE, CALLED 3 TIMES, CODE SIZE REDUCTION:3 WORDS
SUBOPT_0x46:
	LDD  R26,Y+7
	LDD  R27,Y+7+1
	LDI  R31,0
	RET

;OPTIMIZER ADDED SUBROUTINE, CALLED 2 TIMES, CODE SIZE REDUCTION:6 WORDS
SUBOPT_0x47:
	LDD  R30,Y+4
	LSL  R30
	LSL  R30
	LSL  R30
	LDD  R26,Y+8
	LDD  R27,Y+8+1
	LDI  R31,0
	RJMP SUBOPT_0x2F

;OPTIMIZER ADDED SUBROUTINE, CALLED 4 TIMES, CODE SIZE REDUCTION:3 WORDS
SUBOPT_0x48:
	LDI  R30,LOW(3)
	LDI  R31,HIGH(3)
	ST   -Y,R31
	ST   -Y,R30
	RET

;OPTIMIZER ADDED SUBROUTINE, CALLED 3 TIMES, CODE SIZE REDUCTION:1 WORDS
SUBOPT_0x49:
	LDI  R30,LOW(5)
	LDI  R31,HIGH(5)
	ST   -Y,R31
	ST   -Y,R30
	RET

;OPTIMIZER ADDED SUBROUTINE, CALLED 12 TIMES, CODE SIZE REDUCTION:30 WORDS
SUBOPT_0x4A:
	ST   -Y,R30
	LDI  R30,LOW(0)
	ST   -Y,R30
	LDI  R30,LOW(1)
	ST   -Y,R30
	RET

;OPTIMIZER ADDED SUBROUTINE, CALLED 4 TIMES, CODE SIZE REDUCTION:3 WORDS
SUBOPT_0x4B:
	LDI  R30,LOW(7)
	LDI  R31,HIGH(7)
	ST   -Y,R31
	ST   -Y,R30
	RET

;OPTIMIZER ADDED SUBROUTINE, CALLED 3 TIMES, CODE SIZE REDUCTION:1 WORDS
SUBOPT_0x4C:
	LDI  R30,LOW(1)
	ST   -Y,R30
	ST   -Y,R30
	RET

;OPTIMIZER ADDED SUBROUTINE, CALLED 2 TIMES, CODE SIZE REDUCTION:5 WORDS
SUBOPT_0x4D:
	CALL _h_line
	LDI  R30,LOW(2000)
	LDI  R31,HIGH(2000)
	ST   -Y,R31
	ST   -Y,R30
	CALL _delay_ms
	JMP  _glcd_clear

;OPTIMIZER ADDED SUBROUTINE, CALLED 2 TIMES, CODE SIZE REDUCTION:5 WORDS
SUBOPT_0x4E:
	CALL _v_line
	LDI  R30,LOW(2000)
	LDI  R31,HIGH(2000)
	ST   -Y,R31
	ST   -Y,R30
	CALL _delay_ms
	JMP  _glcd_clear

;OPTIMIZER ADDED SUBROUTINE, CALLED 2 TIMES, CODE SIZE REDUCTION:9 WORDS
SUBOPT_0x4F:
	LDI  R30,LOW(127)
	LDI  R31,HIGH(127)
	ST   -Y,R31
	ST   -Y,R30
	LDI  R30,LOW(63)
	LDI  R31,HIGH(63)
	ST   -Y,R31
	ST   -Y,R30
	LDI  R30,LOW(0)
	ST   -Y,R30
	LDI  R30,LOW(1)
	ST   -Y,R30
	JMP  _line

;OPTIMIZER ADDED SUBROUTINE, CALLED 5 TIMES, CODE SIZE REDUCTION:5 WORDS
SUBOPT_0x50:
	LDI  R30,LOW(60)
	LDI  R31,HIGH(60)
	ST   -Y,R31
	ST   -Y,R30
	RET

;OPTIMIZER ADDED SUBROUTINE, CALLED 7 TIMES, CODE SIZE REDUCTION:9 WORDS
SUBOPT_0x51:
	LDI  R30,LOW(15)
	LDI  R31,HIGH(15)
	ST   -Y,R31
	ST   -Y,R30
	RET

;OPTIMIZER ADDED SUBROUTINE, CALLED 2 TIMES, CODE SIZE REDUCTION:1 WORDS
SUBOPT_0x52:
	LDI  R30,LOW(0)
	ST   -Y,R30
	LDI  R30,LOW(1)
	ST   -Y,R30
	JMP  _line

;OPTIMIZER ADDED SUBROUTINE, CALLED 5 TIMES, CODE SIZE REDUCTION:5 WORDS
SUBOPT_0x53:
	LDI  R30,LOW(63)
	LDI  R31,HIGH(63)
	ST   -Y,R31
	ST   -Y,R30
	RET

;OPTIMIZER ADDED SUBROUTINE, CALLED 7 TIMES, CODE SIZE REDUCTION:9 WORDS
SUBOPT_0x54:
	LDI  R30,LOW(10)
	LDI  R31,HIGH(10)
	ST   -Y,R31
	ST   -Y,R30
	RET

;OPTIMIZER ADDED SUBROUTINE, CALLED 4 TIMES, CODE SIZE REDUCTION:3 WORDS
SUBOPT_0x55:
	LDI  R30,LOW(100)
	LDI  R31,HIGH(100)
	ST   -Y,R31
	ST   -Y,R30
	RET

;OPTIMIZER ADDED SUBROUTINE, CALLED 3 TIMES, CODE SIZE REDUCTION:1 WORDS
SUBOPT_0x56:
	LDI  R30,LOW(50)
	LDI  R31,HIGH(50)
	ST   -Y,R31
	ST   -Y,R30
	RET

;OPTIMIZER ADDED SUBROUTINE, CALLED 7 TIMES, CODE SIZE REDUCTION:21 WORDS
SUBOPT_0x57:
	ST   -Y,R31
	ST   -Y,R30
	LDI  R30,LOW(0)
	ST   -Y,R30
	LDI  R30,LOW(1)
	ST   -Y,R30
	RET

;OPTIMIZER ADDED SUBROUTINE, CALLED 3 TIMES, CODE SIZE REDUCTION:5 WORDS
SUBOPT_0x58:
	ST   -Y,R31
	ST   -Y,R30
	LDI  R30,LOW(70)
	LDI  R31,HIGH(70)
	ST   -Y,R31
	ST   -Y,R30
	RET

;OPTIMIZER ADDED SUBROUTINE, CALLED 6 TIMES, CODE SIZE REDUCTION:7 WORDS
SUBOPT_0x59:
	ST   -Y,R31
	ST   -Y,R30
	LDI  R30,LOW(48)
	LDI  R31,HIGH(48)
	RET

;OPTIMIZER ADDED SUBROUTINE, CALLED 5 TIMES, CODE SIZE REDUCTION:21 WORDS
SUBOPT_0x5A:
	LDI  R30,LOW(2000)
	LDI  R31,HIGH(2000)
	ST   -Y,R31
	ST   -Y,R30
	CALL _delay_ms
	JMP  _glcd_clear

;OPTIMIZER ADDED SUBROUTINE, CALLED 3 TIMES, CODE SIZE REDUCTION:1 WORDS
SUBOPT_0x5B:
	LDI  R30,LOW(30)
	LDI  R31,HIGH(30)
	RJMP SUBOPT_0x59

;OPTIMIZER ADDED SUBROUTINE, CALLED 3 TIMES, CODE SIZE REDUCTION:1 WORDS
SUBOPT_0x5C:
	ST   -Y,R31
	ST   -Y,R30
	LDI  R30,LOW(48)
	ST   -Y,R30
	RET

;OPTIMIZER ADDED SUBROUTINE, CALLED 3 TIMES, CODE SIZE REDUCTION:1 WORDS
SUBOPT_0x5D:
	LDI  R30,LOW(110)
	LDI  R31,HIGH(110)
	ST   -Y,R31
	ST   -Y,R30
	RET

;OPTIMIZER ADDED SUBROUTINE, CALLED 7 TIMES, CODE SIZE REDUCTION:9 WORDS
SUBOPT_0x5E:
	LDI  R30,LOW(30)
	LDI  R31,HIGH(30)
	ST   -Y,R31
	ST   -Y,R30
	RET

;OPTIMIZER ADDED SUBROUTINE, CALLED 3 TIMES, CODE SIZE REDUCTION:1 WORDS
SUBOPT_0x5F:
	ST   -Y,R31
	ST   -Y,R30
	RJMP SUBOPT_0x5E

;OPTIMIZER ADDED SUBROUTINE, CALLED 3 TIMES, CODE SIZE REDUCTION:1 WORDS
SUBOPT_0x60:
	LDI  R30,LOW(31)
	LDI  R31,HIGH(31)
	ST   -Y,R31
	ST   -Y,R30
	RET

;OPTIMIZER ADDED SUBROUTINE, CALLED 5 TIMES, CODE SIZE REDUCTION:5 WORDS
SUBOPT_0x61:
	ST   -Y,R31
	ST   -Y,R30
	RJMP SUBOPT_0x2

;OPTIMIZER ADDED SUBROUTINE, CALLED 3 TIMES, CODE SIZE REDUCTION:5 WORDS
SUBOPT_0x62:
	LDI  R30,LOW(2000)
	LDI  R31,HIGH(2000)
	ST   -Y,R31
	ST   -Y,R30
	JMP  _delay_ms

;OPTIMIZER ADDED SUBROUTINE, CALLED 2 TIMES, CODE SIZE REDUCTION:4 WORDS
SUBOPT_0x63:
	MOVW R30,R18
	CALL __LSLW2
	MOV  R31,R30
	LDI  R30,0
	SUBI R30,LOW(-_seq2*2)
	SBCI R31,HIGH(-_seq2*2)
	RJMP SUBOPT_0x61

;OPTIMIZER ADDED SUBROUTINE, CALLED 3 TIMES, CODE SIZE REDUCTION:5 WORDS
SUBOPT_0x64:
	LDI  R30,LOW(127)
	LDI  R31,HIGH(127)
	ST   -Y,R31
	ST   -Y,R30
	RJMP SUBOPT_0x4B

;OPTIMIZER ADDED SUBROUTINE, CALLED 2 TIMES, CODE SIZE REDUCTION:3 WORDS
SUBOPT_0x65:
	CALL _bmp_disp
	LDI  R30,LOW(250)
	LDI  R31,HIGH(250)
	ST   -Y,R31
	ST   -Y,R30
	JMP  _delay_ms

;OPTIMIZER ADDED SUBROUTINE, CALLED 2 TIMES, CODE SIZE REDUCTION:1 WORDS
SUBOPT_0x66:
	LDI  R30,LOW(250)
	LDI  R31,HIGH(250)
	ST   -Y,R31
	ST   -Y,R30
	JMP  _delay_ms


	.CSEG
_delay_ms:
	ld   r30,y+
	ld   r31,y+
	adiw r30,0
	breq __delay_ms1
__delay_ms0:
	__DELAY_USW 0x7D0
	wdr
	sbiw r30,1
	brne __delay_ms0
__delay_ms1:
	ret

__ROUND_REPACK:
	TST  R21
	BRPL __REPACK
	CPI  R21,0x80
	BRNE __ROUND_REPACK0
	SBRS R30,0
	RJMP __REPACK
__ROUND_REPACK0:
	ADIW R30,1
	ADC  R22,R25
	ADC  R23,R25
	BRVS __REPACK1

__REPACK:
	LDI  R21,0x80
	EOR  R21,R23
	BRNE __REPACK0
	PUSH R21
	RJMP __ZERORES
__REPACK0:
	CPI  R21,0xFF
	BREQ __REPACK1
	LSL  R22
	LSL  R0
	ROR  R21
	ROR  R22
	MOV  R23,R21
	RET
__REPACK1:
	PUSH R21
	TST  R0
	BRMI __REPACK2
	RJMP __MAXRES
__REPACK2:
	RJMP __MINRES

__UNPACK:
	LDI  R21,0x80
	MOV  R1,R25
	AND  R1,R21
	LSL  R24
	ROL  R25
	EOR  R25,R21
	LSL  R21
	ROR  R24

__UNPACK1:
	LDI  R21,0x80
	MOV  R0,R23
	AND  R0,R21
	LSL  R22
	ROL  R23
	EOR  R23,R21
	LSL  R21
	ROR  R22
	RET

__CFD1U:
	SET
	RJMP __CFD1U0
__CFD1:
	CLT
__CFD1U0:
	PUSH R21
	RCALL __UNPACK1
	CPI  R23,0x80
	BRLO __CFD10
	CPI  R23,0xFF
	BRCC __CFD10
	RJMP __ZERORES
__CFD10:
	LDI  R21,22
	SUB  R21,R23
	BRPL __CFD11
	NEG  R21
	CPI  R21,8
	BRTC __CFD19
	CPI  R21,9
__CFD19:
	BRLO __CFD17
	SER  R30
	SER  R31
	SER  R22
	LDI  R23,0x7F
	BLD  R23,7
	RJMP __CFD15
__CFD17:
	CLR  R23
	TST  R21
	BREQ __CFD15
__CFD18:
	LSL  R30
	ROL  R31
	ROL  R22
	ROL  R23
	DEC  R21
	BRNE __CFD18
	RJMP __CFD15
__CFD11:
	CLR  R23
__CFD12:
	CPI  R21,8
	BRLO __CFD13
	MOV  R30,R31
	MOV  R31,R22
	MOV  R22,R23
	SUBI R21,8
	RJMP __CFD12
__CFD13:
	TST  R21
	BREQ __CFD15
__CFD14:
	LSR  R23
	ROR  R22
	ROR  R31
	ROR  R30
	DEC  R21
	BRNE __CFD14
__CFD15:
	TST  R0
	BRPL __CFD16
	RCALL __ANEGD1
__CFD16:
	POP  R21
	RET

__CDF1U:
	SET
	RJMP __CDF1U0
__CDF1:
	CLT
__CDF1U0:
	SBIW R30,0
	SBCI R22,0
	SBCI R23,0
	BREQ __CDF10
	CLR  R0
	BRTS __CDF11
	TST  R23
	BRPL __CDF11
	COM  R0
	RCALL __ANEGD1
__CDF11:
	MOV  R1,R23
	LDI  R23,30
	TST  R1
__CDF12:
	BRMI __CDF13
	DEC  R23
	LSL  R30
	ROL  R31
	ROL  R22
	ROL  R1
	RJMP __CDF12
__CDF13:
	MOV  R30,R31
	MOV  R31,R22
	MOV  R22,R1
	PUSH R21
	RCALL __REPACK
	POP  R21
__CDF10:
	RET

__SWAPACC:
	PUSH R20
	MOVW R20,R30
	MOVW R30,R26
	MOVW R26,R20
	MOVW R20,R22
	MOVW R22,R24
	MOVW R24,R20
	MOV  R20,R0
	MOV  R0,R1
	MOV  R1,R20
	POP  R20
	RET

__UADD12:
	ADD  R30,R26
	ADC  R31,R27
	ADC  R22,R24
	RET

__NEGMAN1:
	COM  R30
	COM  R31
	COM  R22
	SUBI R30,-1
	SBCI R31,-1
	SBCI R22,-1
	RET

__SUBF12:
	PUSH R21
	RCALL __UNPACK
	CPI  R25,0x80
	BREQ __ADDF129
	LDI  R21,0x80
	EOR  R1,R21

	RJMP __ADDF120

__ADDF12:
	PUSH R21
	RCALL __UNPACK
	CPI  R25,0x80
	BREQ __ADDF129

__ADDF120:
	CPI  R23,0x80
	BREQ __ADDF128
__ADDF121:
	MOV  R21,R23
	SUB  R21,R25
	BRVS __ADDF1211
	BRPL __ADDF122
	RCALL __SWAPACC
	RJMP __ADDF121
__ADDF122:
	CPI  R21,24
	BRLO __ADDF123
	CLR  R26
	CLR  R27
	CLR  R24
__ADDF123:
	CPI  R21,8
	BRLO __ADDF124
	MOV  R26,R27
	MOV  R27,R24
	CLR  R24
	SUBI R21,8
	RJMP __ADDF123
__ADDF124:
	TST  R21
	BREQ __ADDF126
__ADDF125:
	LSR  R24
	ROR  R27
	ROR  R26
	DEC  R21
	BRNE __ADDF125
__ADDF126:
	MOV  R21,R0
	EOR  R21,R1
	BRMI __ADDF127
	RCALL __UADD12
	BRCC __ADDF129
	ROR  R22
	ROR  R31
	ROR  R30
	INC  R23
	BRVC __ADDF129
	RJMP __MAXRES
__ADDF128:
	RCALL __SWAPACC
__ADDF129:
	RCALL __REPACK
	POP  R21
	RET
__ADDF1211:
	BRCC __ADDF128
	RJMP __ADDF129
__ADDF127:
	SUB  R30,R26
	SBC  R31,R27
	SBC  R22,R24
	BREQ __ZERORES
	BRCC __ADDF1210
	COM  R0
	RCALL __NEGMAN1
__ADDF1210:
	TST  R22
	BRMI __ADDF129
	LSL  R30
	ROL  R31
	ROL  R22
	DEC  R23
	BRVC __ADDF1210

__ZERORES:
	CLR  R30
	CLR  R31
	CLR  R22
	CLR  R23
	POP  R21
	RET

__MINRES:
	SER  R30
	SER  R31
	LDI  R22,0x7F
	SER  R23
	POP  R21
	RET

__MAXRES:
	SER  R30
	SER  R31
	LDI  R22,0x7F
	LDI  R23,0x7F
	POP  R21
	RET

__MULF12:
	PUSH R21
	RCALL __UNPACK
	CPI  R23,0x80
	BREQ __ZERORES
	CPI  R25,0x80
	BREQ __ZERORES
	EOR  R0,R1
	SEC
	ADC  R23,R25
	BRVC __MULF124
	BRLT __ZERORES
__MULF125:
	TST  R0
	BRMI __MINRES
	RJMP __MAXRES
__MULF124:
	PUSH R0
	PUSH R17
	PUSH R18
	PUSH R19
	PUSH R20
	CLR  R17
	CLR  R18
	CLR  R25
	MUL  R22,R24
	MOVW R20,R0
	MUL  R24,R31
	MOV  R19,R0
	ADD  R20,R1
	ADC  R21,R25
	MUL  R22,R27
	ADD  R19,R0
	ADC  R20,R1
	ADC  R21,R25
	MUL  R24,R30
	RCALL __MULF126
	MUL  R27,R31
	RCALL __MULF126
	MUL  R22,R26
	RCALL __MULF126
	MUL  R27,R30
	RCALL __MULF127
	MUL  R26,R31
	RCALL __MULF127
	MUL  R26,R30
	ADD  R17,R1
	ADC  R18,R25
	ADC  R19,R25
	ADC  R20,R25
	ADC  R21,R25
	MOV  R30,R19
	MOV  R31,R20
	MOV  R22,R21
	MOV  R21,R18
	POP  R20
	POP  R19
	POP  R18
	POP  R17
	POP  R0
	TST  R22
	BRMI __MULF122
	LSL  R21
	ROL  R30
	ROL  R31
	ROL  R22
	RJMP __MULF123
__MULF122:
	INC  R23
	BRVS __MULF125
__MULF123:
	RCALL __ROUND_REPACK
	POP  R21
	RET

__MULF127:
	ADD  R17,R0
	ADC  R18,R1
	ADC  R19,R25
	RJMP __MULF128
__MULF126:
	ADD  R18,R0
	ADC  R19,R1
__MULF128:
	ADC  R20,R25
	ADC  R21,R25
	RET

__DIVF21:
	PUSH R21
	RCALL __UNPACK
	CPI  R23,0x80
	BRNE __DIVF210
	TST  R1
__DIVF211:
	BRPL __DIVF219
	RJMP __MINRES
__DIVF219:
	RJMP __MAXRES
__DIVF210:
	CPI  R25,0x80
	BRNE __DIVF218
__DIVF217:
	RJMP __ZERORES
__DIVF218:
	EOR  R0,R1
	SEC
	SBC  R25,R23
	BRVC __DIVF216
	BRLT __DIVF217
	TST  R0
	RJMP __DIVF211
__DIVF216:
	MOV  R23,R25
	PUSH R17
	PUSH R18
	PUSH R19
	PUSH R20
	CLR  R1
	CLR  R17
	CLR  R18
	CLR  R19
	CLR  R20
	CLR  R21
	LDI  R25,32
__DIVF212:
	CP   R26,R30
	CPC  R27,R31
	CPC  R24,R22
	CPC  R20,R17
	BRLO __DIVF213
	SUB  R26,R30
	SBC  R27,R31
	SBC  R24,R22
	SBC  R20,R17
	SEC
	RJMP __DIVF214
__DIVF213:
	CLC
__DIVF214:
	ROL  R21
	ROL  R18
	ROL  R19
	ROL  R1
	ROL  R26
	ROL  R27
	ROL  R24
	ROL  R20
	DEC  R25
	BRNE __DIVF212
	MOVW R30,R18
	MOV  R22,R1
	POP  R20
	POP  R19
	POP  R18
	POP  R17
	TST  R22
	BRMI __DIVF215
	LSL  R21
	ROL  R30
	ROL  R31
	ROL  R22
	DEC  R23
	BRVS __DIVF217
__DIVF215:
	RCALL __ROUND_REPACK
	POP  R21
	RET

__ANEGW1:
	NEG  R31
	NEG  R30
	SBCI R31,0
	RET

__ANEGD1:
	COM  R31
	COM  R22
	COM  R23
	NEG  R30
	SBCI R31,-1
	SBCI R22,-1
	SBCI R23,-1
	RET

__LSLB12:
	TST  R30
	MOV  R0,R30
	MOV  R30,R26
	BREQ __LSLB12R
__LSLB12L:
	LSL  R30
	DEC  R0
	BRNE __LSLB12L
__LSLB12R:
	RET

__LSLW3:
	LSL  R30
	ROL  R31
__LSLW2:
	LSL  R30
	ROL  R31
	LSL  R30
	ROL  R31
	RET

__LSRW3:
	LSR  R31
	ROR  R30
__LSRW2:
	LSR  R31
	ROR  R30
	LSR  R31
	ROR  R30
	RET

__CBD1:
	MOV  R31,R30
	ADD  R31,R31
	SBC  R31,R31
	MOV  R22,R31
	MOV  R23,R31
	RET

__CWD1:
	MOV  R22,R31
	ADD  R22,R22
	SBC  R22,R22
	MOV  R23,R22
	RET

__CWD2:
	MOV  R24,R27
	ADD  R24,R24
	SBC  R24,R24
	MOV  R25,R24
	RET

__GTB12U:
	CP   R30,R26
	LDI  R30,1
	BRLO __GTB12U1
	CLR  R30
__GTB12U1:
	RET

__MULW12U:
	MUL  R31,R26
	MOV  R31,R0
	MUL  R30,R27
	ADD  R31,R0
	MUL  R30,R26
	MOV  R30,R0
	ADD  R31,R1
	RET

__MULW12:
	RCALL __CHKSIGNW
	RCALL __MULW12U
	BRTC __MULW121
	RCALL __ANEGW1
__MULW121:
	RET

__CHKSIGNW:
	CLT
	SBRS R31,7
	RJMP __CHKSW1
	RCALL __ANEGW1
	SET
__CHKSW1:
	SBRS R27,7
	RJMP __CHKSW2
	COM  R26
	COM  R27
	ADIW R26,1
	BLD  R0,0
	INC  R0
	BST  R0,0
__CHKSW2:
	RET

__CDF2U:
	SET
	RJMP __CDF2U0
__CDF2:
	CLT
__CDF2U0:
	RCALL __SWAPD12
	RCALL __CDF1U0

__SWAPD12:
	MOV  R1,R24
	MOV  R24,R22
	MOV  R22,R1
	MOV  R1,R25
	MOV  R25,R23
	MOV  R23,R1

__SWAPW12:
	MOV  R1,R27
	MOV  R27,R31
	MOV  R31,R1

__SWAPB12:
	MOV  R1,R26
	MOV  R26,R30
	MOV  R30,R1
	RET

__SAVELOCR6:
	ST   -Y,R21
__SAVELOCR5:
	ST   -Y,R20
__SAVELOCR4:
	ST   -Y,R19
__SAVELOCR3:
	ST   -Y,R18
__SAVELOCR2:
	ST   -Y,R17
	ST   -Y,R16
	RET

__LOADLOCR6:
	LDD  R21,Y+5
__LOADLOCR5:
	LDD  R20,Y+4
__LOADLOCR4:
	LDD  R19,Y+3
__LOADLOCR3:
	LDD  R18,Y+2
__LOADLOCR2:
	LDD  R17,Y+1
	LD   R16,Y
	RET

__INITLOCB:
__INITLOCW:
	ADD  R26,R28
	ADC  R27,R29
__INITLOC0:
	LPM  R0,Z+
	ST   X+,R0
	DEC  R24
	BRNE __INITLOC0
	RET

;END OF CODE MARKER
__END_OF_CODE:
